((dp0
(I3
I0
I3
tp1
I1
s(I1
I4
I4
tp2
I1
s(I7
I1
I3
tp3
I1
s(I7
I2
I3
tp4
I1
s(I4
I7
I6
tp5
I1
s(I3
I7
I4
tp6
I1
s(I0
I2
I1
tp7
I1
s(I0
I5
I1
tp8
I1
s(I6
I0
I2
tp9
I1
s(I1
I7
I2
tp10
I1
s(I1
I4
I0
tp11
I1
s(I7
I1
I7
tp12
I1
s(I3
I1
I4
tp13
I1
s(I3
I7
I0
tp14
I1
s(I4
I1
I5
tp15
I1
s(I6
I0
I6
tp16
I1
s(I2
I6
I3
tp17
I1
s(I2
I5
I3
tp18
I1
s(I2
I0
I3
tp19
I1
s(I0
I7
I4
tp20
I1
s(I6
I6
I3
tp21
I1
s(I6
I5
I3
tp22
I1
s(I3
I2
I6
tp23
I1
s(I4
I6
I1
tp24
I1
s(I7
I4
I7
tp25
I1
s(I5
I0
I0
tp26
I1
s(I2
I5
I7
tp27
I1
s(I0
I4
I2
tp28
I1
s(I1
I3
I7
tp29
I1
s(I0
I7
I0
tp30
I1
s(I6
I6
I7
tp31
I1
s(I1
I5
I7
tp32
I1
s(I7
I3
I0
tp33
I1
s(I4
I6
I5
tp34
I1
s(I5
I3
I6
tp35
I1
s(I3
I4
I5
tp36
I1
s(I0
I4
I6
tp37
I1
s(I4
I3
I4
tp38
I1
s(I1
I0
I3
tp39
I1
s(I7
I5
I0
tp40
I1
s(I2
I3
I6
tp41
I1
s(I5
I6
I4
tp42
I1
s(I3
I3
I1
tp43
I1
s(I0
I1
I4
tp44
I1
s(I4
I0
I2
tp45
I1
s(I5
I7
I7
tp46
I1
s(I4
I3
I0
tp47
I1
s(I1
I0
I7
tp48
I1
s(I2
I4
I0
tp49
I1
s(I0
I0
I7
tp50
I1
s(I0
I6
I7
tp51
I1
s(I6
I4
I0
tp52
I1
s(I3
I3
I5
tp53
I1
s(I4
I0
I6
tp54
I1
s(I2
I4
I4
tp55
I1
s(I0
I0
I3
tp56
I1
s(I6
I2
I0
tp57
I1
s(I0
I6
I3
tp58
I1
s(I6
I1
I6
tp59
I1
s(I7
I7
I1
tp60
I1
s(I4
I5
I4
tp61
I1
s(I3
I5
I2
tp62
I1
s(I3
I6
I0
tp63
I1
s(I1
I1
I0
tp64
I1
s(I4
I4
I3
tp65
I1
s(I7
I2
I4
tp66
I1
s(I4
I7
I3
tp67
I1
s(I2
I2
I5
tp68
I1
s(I6
I0
I1
tp69
I1
s(I6
I7
I1
tp70
I1
s(I1
I4
I5
tp71
I1
s(I7
I1
I2
tp72
I1
s(I4
I7
I7
tp73
I1
s(I5
I5
I0
tp74
I1
s(I5
I2
I2
tp75
I1
s(I2
I7
I5
tp76
I1
s(I3
I7
I7
tp77
I1
s(I1
I7
I1
tp78
I1
s(I2
I6
I6
tp79
I1
s(I7
I4
I0
tp80
I1
s(I1
I4
I1
tp81
I1
s(I7
I1
I6
tp82
I1
s(I6
I5
I4
tp83
I1
s(I4
I1
I6
tp84
I1
s(I2
I6
I2
tp85
I1
s(I7
I4
I4
tp86
I1
s(I2
I0
I2
tp87
I1
s(I0
I7
I5
tp88
I1
s(I6
I6
I2
tp89
I1
s(I7
I5
I7
tp90
I1
s(I3
I2
I7
tp91
I1
s(I7
I3
I7
tp92
I1
s(I4
I6
I0
tp93
I1
s(I1
I2
I5
tp94
I1
s(I5
I0
I1
tp95
I1
s(I0
I4
I1
tp96
I1
s(I1
I3
I6
tp97
I1
s(I6
I6
I6
tp98
I1
s(I7
I6
I3
tp99
I1
s(I5
I3
I5
tp100
I1
s(I0
I4
I5
tp101
I1
s(I1
I3
I2
tp102
I1
s(I1
I0
I0
tp103
I1
s(I2
I3
I7
tp104
I1
s(I6
I2
I7
tp105
I1
s(I5
I6
I5
tp106
I1
s(I6
I4
I7
tp107
I1
s(I3
I4
I2
tp108
I1
s(I4
I0
I1
tp109
I1
s(I1
I0
I4
tp110
I1
s(I2
I3
I3
tp111
I1
s(I7
I0
I6
tp112
I1
s(I4
I5
I1
tp113
I1
s(I5
I4
I0
tp114
I1
s(I5
I1
I2
tp115
I1
s(I2
I4
I7
tp116
I1
s(I0
I6
I2
tp117
I1
s(I1
I6
I7
tp118
I1
s(I7
I7
I0
tp119
I1
s(I2
I1
I2
tp120
I1
s(I5
I4
I4
tp121
I1
s(I3
I5
I1
tp122
I1
s(I4
I4
I6
tp123
I1
s(I3
I6
I1
tp124
I1
s(I1
I1
I3
tp125
I1
s(I7
I7
I4
tp126
I1
s(I6
I7
I6
tp127
I1
s(I3
I0
I1
tp128
I1
s(I4
I2
I2
tp129
I1
s(I1
I1
I7
tp130
I1
s(I2
I7
I2
tp131
I1
s(I2
I2
I4
tp132
I1
s(I0
I5
I7
tp133
I1
s(I6
I0
I0
tp134
I1
s(I6
I7
I2
tp135
I1
s(I3
I0
I5
tp136
I1
s(I1
I4
I2
tp137
I1
s(I5
I5
I3
tp138
I1
s(I0
I2
I3
tp139
I1
s(I0
I5
I3
tp140
I1
s(I2
I6
I5
tp141
I1
s(I7
I4
I1
tp142
I1
s(I5
I0
I6
tp143
I1
s(I7
I1
I5
tp144
I1
s(I2
I0
I1
tp145
I1
s(I5
I5
I7
tp146
I1
s(I3
I1
I2
tp147
I1
s(I3
I2
I0
tp148
I1
s(I3
I7
I2
tp149
I1
s(I4
I1
I7
tp150
I1
s(I1
I7
I4
tp151
I1
s(I2
I6
I1
tp152
I1
s(I5
I0
I2
tp153
I1
s(I2
I5
I1
tp154
I1
s(I0
I7
I2
tp155
I1
s(I7
I5
I6
tp156
I1
s(I6
I5
I1
tp157
I1
s(I3
I2
I4
tp158
I1
s(I5
I3
I0
tp159
I1
s(I0
I4
I0
tp160
I1
s(I1
I3
I5
tp161
I1
s(I6
I3
I1
tp162
I1
s(I4
I3
I6
tp163
I1
s(I6
I6
I5
tp164
I1
s(I7
I5
I2
tp165
I1
s(I1
I5
I1
tp166
I1
s(I7
I6
I0
tp167
I1
s(I2
I3
I4
tp168
I1
s(I7
I3
I2
tp169
I1
s(I4
I6
I7
tp170
I1
s(I5
I3
I4
tp171
I1
s(I0
I1
I2
tp172
I1
s(I1
I3
I1
tp173
I1
s(I1
I0
I1
tp174
I1
s(I5
I1
I5
tp175
I1
s(I7
I6
I4
tp176
I1
s(I2
I3
I0
tp177
I1
s(I0
I6
I5
tp178
I1
s(I6
I4
I6
tp179
I1
s(I3
I4
I3
tp180
I1
s(I4
I0
I0
tp181
I1
s(I5
I7
I5
tp182
I1
s(I2
I4
I2
tp183
I1
s(I3
I6
I6
tp184
I1
s(I6
I1
I0
tp185
I1
s(I1
I6
I4
tp186
I1
s(I6
I4
I2
tp187
I1
s(I3
I3
I7
tp188
I1
s(I7
I0
I7
tp189
I1
s(I4
I0
I4
tp190
I1
s(I5
I4
I1
tp191
I1
s(I2
I4
I6
tp192
I1
s(I0
I0
I1
tp193
I1
s(I6
I1
I4
tp194
I1
s(I1
I6
I0
tp195
I1
s(I7
I7
I3
tp196
I1
s(I2
I2
I3
tp197
I1
s(I4
I5
I6
tp198
I1
s(I2
I1
I3
tp199
I1
s(I7
I2
I6
tp200
I1
s(I4
I2
I1
tp201
I1
s(I7
I7
I7
tp202
I1
s(I2
I2
I7
tp203
I1
s(I1
I4
I7
tp204
I1
s(I3
I5
I4
tp205
I1
s(I1
I1
I6
tp206
I1
s(I5
I2
I0
tp207
I1
s(I2
I7
I3
tp208
I1
s(I3
I7
I5
tp209
I1
s(I0
I5
I0
tp210
I1
s(I1
I7
I3
tp211
I1
s(I1
I4
I3
tp212
I1
s(I2
I0
I4
tp213
I1
s(I5
I5
I2
tp214
I1
s(I3
I7
I1
tp215
I1
s(I0
I2
I2
tp216
I1
s(I6
I0
I7
tp217
I1
s(I1
I7
I7
tp218
I1
s(I7
I4
I2
tp219
I1
s(I6
I5
I2
tp220
I1
s(I0
I2
I6
tp221
I1
s(I5
I3
I3
tp222
I1
s(I7
I4
I6
tp223
I1
s(I5
I0
I3
tp224
I1
s(I2
I5
I6
tp225
I1
s(I7
I3
I1
tp226
I1
s(I4
I6
I2
tp227
I1
s(I1
I2
I7
tp228
I1
s(I5
I3
I7
tp229
I1
s(I0
I4
I7
tp230
I1
s(I6
I3
I2
tp231
I1
s(I4
I3
I7
tp232
I1
s(I1
I0
I2
tp233
I1
s(I6
I6
I4
tp234
I1
s(I7
I5
I1
tp235
I1
s(I1
I5
I0
tp236
I1
s(I4
I6
I6
tp237
I1
s(I3
I4
I0
tp238
I1
s(I0
I1
I3
tp239
I1
s(I4
I0
I3
tp240
I1
s(I6
I3
I6
tp241
I1
s(I4
I3
I3
tp242
I1
s(I2
I4
I1
tp243
I1
s(I7
I6
I5
tp244
I1
s(I6
I2
I5
tp245
I1
s(I5
I6
I7
tp246
I1
s(I7
I0
I4
tp247
I1
s(I5
I7
I4
tp248
I1
s(I0
I3
I2
tp249
I1
s(I6
I2
I1
tp250
I1
s(I7
I0
I0
tp251
I1
s(I5
I4
I6
tp252
I1
s(I3
I5
I3
tp253
I1
s(I4
I2
I4
tp254
I1
s(I7
I7
I2
tp255
I1
s(I4
I5
I7
tp256
I1
s(I3
I5
I7
tp257
I1
s(I4
I4
I4
tp258
I1
s(I1
I1
I5
tp259
I1
s(I2
I7
I0
tp260
I1
s(I2
I2
I6
tp261
I1
s(lp262
I01
aI00
aI00
aI00
aI00
aI00
aI00
aI00
aI00
aI00
aI00
aI00
aI01
aI00
aI00
aI00
aI00
aI00
aI00
aI00
aI00
aI00
aI01
aI00
aI01
aI00
aI00
aI00
aI00
aI00
aI01
aI00
aI00
aI01
aI00
aI00
aI00
aI00
aI01
aI00
aI01
aI00
aI00
aI00
aI00
aI00
aI01
aI00
aI00
aI00
aI00
aI00
aI00
aI00
aI00
aI00
aI00
aI00
aI01
aI00
aI00
aI00
aI00
aI00
aI00
aI00
aI00
aI00
aI01
aI00
aI00
aI00
aI00
aI00
aI00
aI01
aI00
aI01
aI00
aI00
aI00
aI00
aI00
aI00
aI00
aI00
aI00
aI00
aI00
aI01
aI01
aI00
aI00
aI01
aI00
aI00
aI00
aI00
aI00
aI00
aI00
aI00
aI01
aI00
aI00
aI00
aI00
aI00
aI00
aI00
aI00
aI00
aI00
aI00
aI00
aI00
aI00
aI01
aI00
aI00
aI00
aI00
aI00
aI00
aI01
aI00
aI00
aI00
aI00
aI00
aI00
aI01
aI00
aI00
aI01
aI00
aI00
aI00
aI01
aI00
aI01
aI00
aI00
aI00
aI01
aI00
aI00
aI00
aI00
aI00
aI00
aI00
aI00
aI00
aI00
aI01
aI00
aI00
aI00
aI00
aI00
aI00
aI00
aI00
aI00
aI00
aI01
aI00
aI01
aI00
aI00
aI00
aI00
aI00
aI01
aI00
aI00
aI00
aI00
aI00
aI00
aI01
aI00
aI00
aI00
aI00
aI00
aI00
aI00
aI00
aI01
aI00
aI00
aI00
aI00
aI00
aI00
aI00
aI00
aI00
aI01
aI00
aI00
aI00
aI00
aI00
aI01
aI00
aI00
aI00
aI00
aI00
aI00
aI00
aI00
aI00
aI01
aI01
aI00
aI00
aI00
aI00
aI01
aI00
aI01
aI00
aI01
aI00
aI00
aI00
aI01
aI00
aI01
aI00
aI00
aI00
aI00
aI01
aI01
aI00
aI00
aI01
aI00
aI00
aI00
aI01
aI00
aI00
aI01
aI00
aI01
aI01
aI00
aI00
aI00
aI01
aI00
aI00
aI00
aI00
aI00
aI01
aI01
aI01
aI01
aI01
aI00
aI00
aI00
aI00
aI00
aI00
aI00
aI00
aI00
aI00
aI01
aI00
aI00
aI00
aI00
aI00
aI00
aI00
aI01
aI00
aI00
aI00
aI00
aI00
aI00
aI00
aI00
aI00
aI00
aI00
aI00
aI00
aI00
aI00
aI00
aI00
aI00
aI00
aI00
aI00
aI00
aI00
aI00
aI00
aI00
aI00
aI00
aI00
aI01
aI00
aI00
aI01
aI00
aI00
aI00
aI00
aI00
aI00
aI00
aI00
aI00
aI01
aI00
aI00
aI00
aI01
aI00
aI00
aI00
aI01
aI01
aI00
aI00
aI00
aI00
aI00
aI00
aI00
aI01
aI00
aI00
aI00
aI00
aI00
aI00
aI00
aI00
aI00
aI00
aI00
aI00
aI00
aI00
aI00
aI00
aI00
aI00
aI00
aI00
aI00
aI00
aI00
aI01
aI00
aI00
aI00
aI00
aI00
aI00
aI00
aI01
aI00
aI00
aI00
aI00
aI00
aI01
aI00
aI00
aI00
aI00
aI00
aI01
aI01
aI00
aI00
aI00
aI00
aI00
aI00
aI00
aI00
aI00
aI00
aI00
aI00
aI00
aI00
aI00
aI00
aI00
aI00
aI00
aI00
aI01
aI01
aI00
aI00
aI00
aI00
aI00
aI00
aI00
aI00
aI01
aI01
aI00
aI01
aI01
aI01
aI00
aI00
aI00
aI00
aI01
aI00
aI00
aI00
aI00
aI00
aI00
aI00
aI00
aI01
aI00
aI00
aI00
aI00
aI00
aI00
aI00
aI00
aI00
aI00
aI01
aI00
aI00
aI00
aI00
aI01
aI00
aI01
aI00
aI00
aI00
aI01
aI00
aI00
aI00
aI00
aI00
aI00
aI00
aI00
aI00
aI00
aI00
aI00
aI00
aI00
aI00
aI00
aI00
aI00
aI00
aI00
aI00
aI00
aI00
aI00
aI00
aI00
aI01
aI00
aI00
aI01
aI00
aI00
aI00
aI00
aI00
aI01
aI01
aI00
aI00
aI00
aI00
aI00
aI01
aI01
aI00
aI00
aI00
aI00
aI00
aI00
aI00
aI00
aI00
aI00
aI00
aI00
aI01
aI00
aI01
aI01
aI00
aI00
aI00
aI00
aI00
aI01
aI00
aI00
aI00
aI00
aI00
aI01
aI00
aI00
aI00
aI00
aI00
aI00
aI00
aI00
aI01
aI00
aI01
aI01
aI00
aI00
aI01
aI00
aI00
aI00
aI01
aI00
aI00
aI00
aI00
aI00
aI00
aI00
aI00
aI00
aI00
aI00
aI00
aI00
aI00
aI01
aI00
aI00
aI00
aI00
aI00
aI00
aI00
aI00
aI01
aI00
aI00
aI00
aI00
aI00
aI00
aI00
aI00
aI01
aI01
aI00
aI00
aI00
aI00
aI00
aI00
aI00
aI00
aI00
aI00
aI00
aI00
aI00
aI00
aI00
aI01
aI00
aI01
aI00
aI00
aI00
aI00
aI00
aI00
aI00
aI00
aI00
aI00
aI00
aI01
aI01
aI00
aI00
aI00
aI00
aI00
aI00
aI00
aI00
aI00
aI00
aI00
aI00
aI01
aI00
aI00
aI00
aI00
aI01
aI00
aI00
aI00
aI00
aI00
aI00
aI00
aI00
aI00
aI01
aI00
aI00
aI00
aI01
aI00
aI01
aI00
aI00
aI00
aI00
aI00
aI00
aI00
aI00
aI01
aI01
aI00
aI00
aI00
aI00
aI00
aI00
aI00
aI00
aI00
aI00
aI00
aI01
aI00
aI00
aI01
aI00
aI00
aI00
aI00
aI00
aI01
aI00
aI01
aI00
aI00
aI01
aI00
aI00
aI00
aI00
aI00
aI00
aI00
aI00
aI00
aI01
aI00
aI01
aI01
aI01
aI01
aI01
aI01
aI00
aI00
aI00
aI00
aI00
aI00
aI00
aI00
aI01
aI00
aI00
aI00
aI00
aI00
aI00
aI00
aI01
aI00
aI00
aI01
aI01
aI00
aI00
aI00
aI00
aI00
aI00
aI00
aI00
aI00
aI00
aI00
aI00
aI00
aI00
aI00
aI01
aI00
aI00
aI00
aI00
aI00
aI01
aI00
aI01
aI00
aI00
aI00
aI00
aI00
aI01
aI00
aI01
aI00
aI00
aI00
aI00
aI00
aI00
aI00
aI00
aI00
aI00
aI00
aI01
aI00
aI00
aI00
aI00
aI00
aI00
aI00
aI01
aI00
aI00
aI01
aI00
aI01
aI00
aI00
aI00
aI00
aI00
aI00
aI00
aI00
aI00
aI01
aI00
aI00
aI01
aI00
aI00
aI01
aI00
aI01
aI00
aI00
aI00
aI00
aI00
aI00
aI00
aI00
aI00
aI00
aI00
aI00
aI00
aI00
aI00
aI01
aI00
aI00
aI01
aI00
aI00
aI00
aI01
aI00
aI00
aI00
aI00
aI00
aI00
aI00
aI00
aI00
aI00
aI00
aI00
aI00
aI00
aI01
aI00
aI00
aI00
aI01
aI00
aI00
aI00
aI00
aI00
aI00
aI00
aI01
aI00
aI00
aI01
aI00
aI00
aI00
aI00
aI00
aI00
aI00
aI00
aI00
aI00
aI00
aI01
aI00
aI01
aI00
aI01
aI01
aI00
aI00
aI00
aI00
aI00
aI00
aI00
aI01
aI00
aI00
aI00
aI00
aI00
aI00
aI00
aI00
aI01
aI01
aI00
aI00
aI00
aI01
aI00
aI00
aI01
aI01
aI00
aI01
aI00
aI01
aI01
aI00
aI00
aI01
aI00
aI00
aI00
aI00
aI00
aI00
aI00
aI00
aI00
aI00
aI00
aI00
aI00
aI01
aI00
aI00
aI00
aI00
aI01
aI00
aI00
aI00
aI00
aI00
aI00
aI00
aI00
aI00
aI00
aI00
aI00
aI01
aI00
aI01
aI00
aI00
aI00
aI00
aI00
aI00
aI00
aI00
aI00
aI00
aI00
aI00
aI00
aI01
aI00
aI00
aI00
aI00
aI01
aI00
aI00
aI00
aI00
aI00
aI00
aI00
aI00
aI01
aI00
aI00
aI00
aI00
aI00
aI00
aI00
aI00
aI00
aI00
aI00
aI00
aI00
aI00
aI00
aI00
aI00
aI00
aI00
aI01
aI00
aI00
aI00
aI00
aI01
aI01
aI00
aI00
aI00
aI00
aI00
aI00
aI00
aI01
aI00
aI00
aI00
aI00
aI00
aI00
aI00
aI00
aI00
aI00
aI00
aI00
aI00
aI00
aI00
aI00
aI00
aI01
aI00
aI00
aI00
aI00
aI00
aI00
aI00
aI00
aI00
aI00
aI00
aI01
aI00
aI00
aI00
aI00
aI00
aI01
aI00
aI00
aI00
aI00
aI00
aI00
aI00
aI00
aI00
aI00
aI00
aI00
aI01
aI00
aI00
aI00
aI00
aI01
aI00
aI01
aI00
aI00
aI00
aI00
aI01
aI00
aI00
aI00
aI01
aI00
aI01
aI00
aI00
aI01
aI00
aI00
aI01
aI00
aI00
aI00
aI00
aI00
aI00
aI00
aI00
aI00
aI00
aI00
aI00
aI00
aI00
aI00
aI01
aI00
aI00
aI00
aI00
aI01
aI00
aI00
aI00
aI00
aI00
aI00
aI00
aI00
aI00
aI00
aI01
aI00
aI00
aI00
aI00
aI00
aI01
aI00
aI00
aI00
aI00
aI00
aI00
aI00
aI00
aI00
aI01
aI00
aI00
aI00
aI00
aI00
aI00
aI00
aI00
aI01
aI00
aI00
aI00
aI00
aI00
aI00
aI00
aI00
aI01
aI00
aI00
aI00
aI00
aI01
aI00
aI00
aI00
aI00
aI00
aI00
aI00
aI00
aI01
aI01
aI00
aI01
aI00
aI00
aI00
aI00
aI00
aI00
aI00
aI00
aI01
aI00
aI00
aI00
aI00
aI00
aI00
aI00
aI01
aI01
aI00
aI00
aI01
aI00
aI00
aI01
aI01
aI00
aI01
aI01
aI00
aI00
aI01
aI00
aI00
aI00
aI00
aI01
aI00
aI00
aI00
aI00
aI00
aI00
aI00
aI00
aI01
aI00
aI01
aI00
aI00
aI01
aI00
aI00
aI00
aI00
aI00
aI00
aI01
aI00
aI00
aI00
aI00
aI00
aI00
aI00
aI00
aI00
aI00
aI00
aI00
aI00
aI00
aI00
aI00
aI00
aI00
aI00
aI00
aI01
aI00
aI01
aI00
aI01
aI00
aI00
aI00
aI00
aI00
aI00
aI01
aI00
aI00
aI00
aI00
aI00
aI00
aI01
aI00
aI01
aI01
aI00
aI00
aI00
aI00
aI01
aI00
aI00
aI00
aI00
aI00
aI00
aI00
aI00
aI00
aI00
aI00
aI00
aI00
aI01
aI00
aI00
aI01
aI00
aI00
aI00
aI00
aI00
aI00
aI00
aI00
aI00
aI00
aI00
aI00
aI00
aI00
aI01
aI00
aI00
aI00
aI00
aI00
aI01
aI00
aI00
aI00
aI01
aI00
aI00
aI00
aI00
aI01
aI00
aI00
aI00
aI01
aI00
aI00
aI00
aI00
aI00
aI00
aI00
aI00
aI00
aI00
aI00
aI00
aI00
aI00
aI00
aI00
aI01
aI00
aI01
aI00
aI00
aI00
aI00
aI00
aI00
aI00
aI00
aI00
aI00
aI00
aI00
aI01
aI00
aI00
aI00
aI00
aI01
aI00
aI00
aI00
aI00
aI00
aI00
aI00
aI00
aI00
aI00
aI00
aI00
aI00
aI00
aI00
aI00
aI01
aI00
aI00
aI01
aI00
aI00
aI01
aI00
aI00
aI00
aI00
aI00
aI00
aI00
aI00
aI00
aI00
aI01
aI00
aI00
aI00
aI00
aI00
aI00
aI00
aI00
aI00
aI00
aI01
aI00
aI00
aI00
aI00
aI00
aI01
aI00
aI00
aI00
aI00
aI00
aI00
aI00
aI00
aI00
aI01
aI01
aI01
aI00
aI00
aI00
aI00
aI00
aI00
aI00
aI00
aI00
aI00
aI01
aI00
aI00
aI00
aI00
aI00
aI00
aI01
aI00
aI00
aI00
aI00
aI00
aI00
aI00
aI00
aI00
aI00
aI00
aI00
aI01
aI00
aI01
aI00
aI01
aI00
aI00
aI00
aI00
aI00
aI00
aI00
aI01
aI00
aI00
aI00
aI00
aI00
aI00
aI00
aI00
aI00
aI00
aI01
aI01
aI00
aI00
aI00
aI00
aI00
aI01
aI00
aI00
aI01
aI00
aI00
aI00
aI00
aI01
aI00
aI00
aI00
aI00
aI00
aI01
aI01
aI00
aI00
aI01
aI00
aI00
aI00
aI00
aI00
aI00
aI00
aI00
aI00
aI00
aI00
aI00
aI00
aI00
aI01
aI00
aI00
aI00
aI00
aI01
aI00
aI00
aI00
aI00
aI00
aI00
aI00
aI00
aI00
aI00
aI00
aI00
aI00
aI00
aI01
aI00
aI00
aI00
aI00
aI00
aI00
aI00
aI00
aI00
aI00
aI01
aI00
aI00
aI00
aI00
aI01
aI00
aI01
aI01
aI00
aI00
aI00
aI00
aI00
aI00
aI00
aI00
aI01
aI00
aI00
aI00
aI00
aI01
aI00
aI01
aI00
aI00
aI00
aI00
aI00
aI00
aI00
aI00
aI00
aI00
aI00
aI00
aI01
aI00
aI00
aI00
aI00
aI00
aI00
aI00
aI01
aI00
aI00
aI00
aI00
aI00
aI00
aI01
aI00
aI00
aI00
aI00
aI00
aI00
aI00
aI01
aI00
aI00
aI00
aI01
aI00
aI00
aI00
aI00
aI00
aI00
aI00
aI00
aI00
aI00
aI00
aI00
aI00
aI00
aI00
aI01
aI01
aI01
aI00
aI01
aI00
aI00
aI00
aI00
aI00
aI00
aI00
aI00
aI00
aI01
aI00
aI00
aI00
aI00
aI00
aI00
aI00
aS'82'
p263
tp264
.