((dp0
(I11
I5
I9
tp1
I1
s(I2
I5
I11
tp2
I1
s(I4
I10
I5
tp3
I1
s(I4
I7
I6
tp4
I1
s(I9
I8
I3
tp5
I1
s(I10
I1
I6
tp6
I1
s(I2
I8
I2
tp7
I1
s(I7
I10
I8
tp8
I1
s(I1
I11
I10
tp9
I1
s(I10
I11
I6
tp10
I1
s(I0
I2
I1
tp11
I1
s(I9
I5
I10
tp12
I1
s(I10
I4
I7
tp13
I1
s(I1
I7
I2
tp14
I1
s(I2
I6
I7
tp15
I1
s(I8
I6
I2
tp16
I1
s(I0
I4
I10
tp17
I1
s(I3
I1
I4
tp18
I1
s(I7
I6
I10
tp19
I1
s(I0
I11
I9
tp20
I1
s(I11
I5
I1
tp21
I1
s(I9
I9
I8
tp22
I1
s(I8
I3
I9
tp23
I1
s(I7
I11
I3
tp24
I1
s(I7
I1
I3
tp25
I1
s(I3
I0
I11
tp26
I1
s(I10
I10
I9
tp27
I1
s(I0
I1
I8
tp28
I1
s(I2
I0
I11
tp29
I1
s(I6
I6
I3
tp30
I1
s(I3
I2
I6
tp31
I1
s(I7
I3
I4
tp32
I1
s(I9
I4
I6
tp33
I1
s(I0
I8
I10
tp34
I1
s(I5
I0
I0
tp35
I1
s(I10
I9
I5
tp36
I1
s(I11
I2
I8
tp37
I1
s(I0
I4
I2
tp38
I1
s(I10
I2
I4
tp39
I1
s(I7
I6
I2
tp40
I1
s(I1
I8
I4
tp41
I1
s(I5
I8
I7
tp42
I1
s(I6
I1
I10
tp43
I1
s(I2
I11
I3
tp44
I1
s(I10
I10
I1
tp45
I1
s(I8
I10
I8
tp46
I1
s(I7
I0
I7
tp47
I1
s(I3
I9
I1
tp48
I1
s(I5
I7
I11
tp49
I1
s(I2
I9
I6
tp50
I1
s(I7
I5
I0
tp51
I1
s(I2
I3
I6
tp52
I1
s(I0
I3
I11
tp53
I1
s(I5
I11
I3
tp54
I1
s(I4
I1
I9
tp55
I1
s(I5
I6
I4
tp56
I1
s(I6
I6
I6
tp57
I1
s(I6
I4
I4
tp58
I1
s(I4
I8
I11
tp59
I1
s(I11
I10
I6
tp60
I1
s(I9
I10
I9
tp61
I1
s(I8
I2
I7
tp62
I1
s(I0
I0
I7
tp63
I1
s(I9
I9
I6
tp64
I1
s(I4
I3
I10
tp65
I1
s(I6
I1
I2
tp66
I1
s(I3
I3
I5
tp67
I1
s(I4
I11
I7
tp68
I1
s(I9
I5
I5
tp69
I1
s(I1
I8
I5
tp70
I1
s(I7
I5
I8
tp71
I1
s(I5
I1
I3
tp72
I1
s(I4
I4
I11
tp73
I1
s(I10
I8
I6
tp74
I1
s(I6
I2
I0
tp75
I1
s(I1
I6
I6
tp76
I1
s(I7
I7
I1
tp77
I1
s(I3
I4
I9
tp78
I1
s(I4
I5
I4
tp79
I1
s(I2
I1
I5
tp80
I1
s(I5
I9
I4
tp81
I1
s(I10
I3
I4
tp82
I1
s(I4
I3
I8
tp83
I1
s(I5
I4
I7
tp84
I1
s(I7
I1
I10
tp85
I1
s(I1
I1
I0
tp86
I1
s(I7
I10
I1
tp87
I1
s(I9
I3
I1
tp88
I1
s(I8
I0
I9
tp89
I1
s(I11
I6
I10
tp90
I1
s(I1
I7
I9
tp91
I1
s(I7
I4
I8
tp92
I1
s(I5
I1
I11
tp93
I1
s(I6
I8
I4
tp94
I1
s(I4
I4
I3
tp95
I1
s(I3
I11
I6
tp96
I1
s(I4
I2
I3
tp97
I1
s(I7
I10
I3
tp98
I1
s(I2
I7
I1
tp99
I1
s(I9
I0
I5
tp100
I1
s(I6
I0
I1
tp101
I1
s(I1
I4
I5
tp102
I1
s(I2
I5
I8
tp103
I1
s(I8
I9
I1
tp104
I1
s(I9
I6
I4
tp105
I1
s(I3
I6
I8
tp106
I1
s(I4
I7
I7
tp107
I1
s(I6
I6
I10
tp108
I1
s(I1
I11
I9
tp109
I1
s(I0
I2
I0
tp110
I1
s(I10
I4
I6
tp111
I1
s(I8
I0
I1
tp112
I1
s(I4
I5
I11
tp113
I1
s(I2
I6
I6
tp114
I1
s(I7
I4
I0
tp115
I1
s(I4
I3
I5
tp116
I1
s(I1
I10
I6
tp117
I1
s(I2
I0
I6
tp118
I1
s(I3
I10
I10
tp119
I1
s(I11
I9
I8
tp120
I1
s(I6
I5
I4
tp121
I1
s(I7
I6
I11
tp122
I1
s(I5
I9
I6
tp123
I1
s(I1
I2
I1
tp124
I1
s(I8
I3
I5
tp125
I1
s(I11
I7
I9
tp126
I1
s(I0
I7
I5
tp127
I1
s(I1
I0
I8
tp128
I1
s(I3
I8
I2
tp129
I1
s(I5
I2
I10
tp130
I1
s(I3
I2
I7
tp131
I1
s(I11
I0
I2
tp132
I1
s(I5
I11
I10
tp133
I1
s(I7
I11
I1
tp134
I1
s(I4
I1
I2
tp135
I1
s(I3
I11
I7
tp136
I1
s(I10
I9
I2
tp137
I1
s(I0
I4
I1
tp138
I1
s(I11
I8
I6
tp139
I1
s(I6
I3
I0
tp140
I1
s(I7
I1
I8
tp141
I1
s(I1
I5
I6
tp142
I1
s(I2
I4
I11
tp143
I1
s(I7
I6
I3
tp144
I1
s(I10
I6
I8
tp145
I1
s(I4
I6
I4
tp146
I1
s(I5
I8
I4
tp147
I1
s(I6
I1
I11
tp148
I1
s(I7
I11
I10
tp149
I1
s(I5
I3
I5
tp150
I1
s(I6
I10
I2
tp151
I1
s(I10
I10
I0
tp152
I1
s(I8
I10
I11
tp153
I1
s(I0
I1
I1
tp154
I1
s(I0
I3
I5
tp155
I1
s(I5
I7
I10
tp156
I1
s(I11
I7
I1
tp157
I1
s(I1
I10
I9
tp158
I1
s(I1
I0
I0
tp159
I1
s(I2
I9
I7
tp160
I1
s(I10
I8
I9
tp161
I1
s(I0
I3
I8
tp162
I1
s(I5
I11
I2
tp163
I1
s(I6
I2
I7
tp164
I1
s(I4
I1
I10
tp165
I1
s(I5
I6
I5
tp166
I1
s(I4
I8
I10
tp167
I1
s(I6
I4
I7
tp168
I1
s(I7
I7
I8
tp169
I1
s(I2
I1
I10
tp170
I1
s(I11
I2
I1
tp171
I1
s(I2
I10
I3
tp172
I1
s(I7
I8
I3
tp173
I1
s(I5
I10
I0
tp174
I1
s(I4
I11
I8
tp175
I1
s(I10
I6
I0
tp176
I1
s(I11
I4
I8
tp177
I1
s(I7
I10
I6
tp178
I1
s(I2
I2
I8
tp179
I1
s(I8
I7
I8
tp180
I1
s(I5
I7
I2
tp181
I1
s(I5
I1
I2
tp182
I1
s(I4
I4
I10
tp183
I1
s(I5
I7
I6
tp184
I1
s(I1
I6
I7
tp185
I1
s(I2
I7
I10
tp186
I1
s(I4
I8
I2
tp187
I1
s(I1
I9
I6
tp188
I1
s(I5
I9
I7
tp189
I1
s(I6
I0
I8
tp190
I1
s(I1
I8
I8
tp191
I1
s(I4
I3
I9
tp192
I1
s(I5
I4
I4
tp193
I1
s(I8
I9
I10
tp194
I1
s(I3
I6
I1
tp195
I1
s(I11
I4
I0
tp196
I1
s(I9
I8
I9
tp197
I1
s(I2
I8
I4
tp198
I1
s(I9
I3
I0
tp199
I1
s(I10
I11
I8
tp200
I1
s(I3
I8
I8
tp201
I1
s(I6
I7
I6
tp202
I1
s(I7
I4
I9
tp203
I1
s(I7
I2
I5
tp204
I1
s(I9
I11
I5
tp205
I1
s(I9
I0
I10
tp206
I1
s(I0
I5
I7
tp207
I1
s(I1
I2
I10
tp208
I1
s(I6
I0
I0
tp209
I1
s(I8
I3
I2
tp210
I1
s(I0
I10
I6
tp211
I1
s(I1
I4
I2
tp212
I1
s(I2
I5
I9
tp213
I1
s(I4
I10
I7
tp214
I1
s(I4
I7
I4
tp215
I1
s(I9
I8
I1
tp216
I1
s(I6
I6
I9
tp217
I1
s(I8
I11
I9
tp218
I1
s(I0
I2
I3
tp219
I1
s(I10
I4
I9
tp220
I1
s(I8
I0
I0
tp221
I1
s(I11
I11
I1
tp222
I1
s(I2
I6
I5
tp223
I1
s(I9
I1
I1
tp224
I1
s(I2
I0
I1
tp225
I1
s(I0
I4
I8
tp226
I1
s(I5
I10
I6
tp227
I1
s(I3
I10
I11
tp228
I1
s(I4
I2
I10
tp229
I1
s(I3
I1
I2
tp230
I1
s(I7
I6
I8
tp231
I1
s(I1
I8
I2
tp232
I1
s(I3
I7
I2
tp233
I1
s(I11
I5
I7
tp234
I1
s(I9
I9
I10
tp235
I1
s(I1
I2
I2
tp236
I1
s(I11
I8
I8
tp237
I1
s(I6
I10
I9
tp238
I1
s(I0
I1
I10
tp239
I1
s(I10
I7
I0
tp240
I1
s(I6
I6
I1
tp241
I1
s(I7
I5
I6
tp242
I1
s(I6
I11
I6
tp243
I1
s(I11
I0
I3
tp244
I1
s(I0
I8
I8
tp245
I1
s(I4
I11
I6
tp246
I1
s(I10
I9
I3
tp247
I1
s(I1
I3
I10
tp248
I1
s(I4
I3
I6
tp249
I1
s(I0
I9
I7
tp250
I1
s(I4
I9
I6
tp251
I1
s(I9
I7
I2
tp252
I1
s(I1
I8
I10
tp253
I1
s(I0
I6
I9
tp254
I1
s(I6
I1
I8
tp255
I1
s(I5
I3
I4
tp256
I1
s(I6
I10
I1
tp257
I1
s(I10
I10
I7
tp258
I1
s(I8
I10
I10
tp259
I1
s(I0
I1
I2
tp260
I1
s(I10
I6
I9
tp261
I1
s(I5
I7
I9
tp262
I1
s(I11
I7
I0
tp263
I1
s(I7
I3
I0
tp264
I1
s(I2
I9
I4
tp265
I1
s(I0
I3
I9
tp266
I1
s(I5
I11
I1
tp267
I1
s(I3
I11
I8
tp268
I1
s(I4
I1
I11
tp269
I1
s(I1
I6
I8
tp270
I1
s(I8
I7
I4
tp271
I1
s(I1
I9
I1
tp272
I1
s(I2
I1
I11
tp273
I1
s(I9
I9
I0
tp274
I1
s(I2
I10
I2
tp275
I1
s(I9
I7
I10
tp276
I1
s(I3
I6
I6
tp277
I1
s(I11
I4
I9
tp278
I1
s(I0
I6
I1
tp279
I1
s(I1
I1
I10
tp280
I1
s(I8
I4
I2
tp281
I1
s(I0
I11
I10
tp282
I1
s(I8
I10
I2
tp283
I1
s(I9
I5
I7
tp284
I1
s(I10
I8
I0
tp285
I1
s(I7
I2
I10
tp286
I1
s(I7
I9
I3
tp287
I1
s(I7
I7
I3
tp288
I1
s(I3
I4
I11
tp289
I1
s(I4
I5
I6
tp290
I1
s(I9
I10
I3
tp291
I1
s(I5
I4
I5
tp292
I1
s(I1
I4
I11
tp293
I1
s(I8
I9
I11
tp294
I1
s(I11
I4
I1
tp295
I1
s(I7
I7
I6
tp296
I1
s(I2
I8
I7
tp297
I1
s(I8
I4
I10
tp298
I1
s(I5
I2
I4
tp299
I1
s(I9
I6
I11
tp300
I1
s(I10
I11
I9
tp301
I1
s(I2
I2
I7
tp302
I1
s(I8
I0
I7
tp303
I1
s(I6
I3
I3
tp304
I1
s(I4
I3
I4
tp305
I1
s(I6
I8
I6
tp306
I1
s(I4
I4
I1
tp307
I1
s(I7
I2
I2
tp308
I1
s(I8
I1
I8
tp309
I1
s(I3
I1
I9
tp310
I1
s(I6
I5
I10
tp311
I1
s(I2
I7
I3
tp312
I1
s(I9
I10
I2
tp313
I1
s(I0
I5
I0
tp314
I1
s(I10
I3
I5
tp315
I1
s(I6
I0
I3
tp316
I1
s(I8
I3
I3
tp317
I1
s(I0
I10
I9
tp318
I1
s(I3
I0
I6
tp319
I1
s(I1
I4
I3
tp320
I1
s(I8
I9
I3
tp321
I1
s(I9
I6
I6
tp322
I1
s(I4
I7
I5
tp323
I1
s(I0
I7
I11
tp324
I1
s(I6
I6
I8
tp325
I1
s(I10
I11
I1
tp326
I1
s(I10
I4
I8
tp327
I1
s(I4
I1
I4
tp328
I1
s(I9
I1
I0
tp329
I1
s(I1
I10
I8
tp330
I1
s(I10
I9
I8
tp331
I1
s(I2
I0
I0
tp332
I1
s(I11
I8
I5
tp333
I1
s(I3
I10
I8
tp334
I1
s(I3
I1
I1
tp335
I1
s(I1
I5
I8
tp336
I1
s(I6
I5
I2
tp337
I1
s(I7
I6
I9
tp338
I1
s(I1
I8
I3
tp339
I1
s(I5
I8
I10
tp340
I1
s(I11
I8
I9
tp341
I1
s(I0
I8
I9
tp342
I1
s(I11
I7
I11
tp343
I1
s(I0
I7
I3
tp344
I1
s(I11
I10
I0
tp345
I1
s(I3
I2
I5
tp346
I1
s(I7
I3
I1
tp347
I1
s(I5
I11
I8
tp348
I1
s(I7
I9
I0
tp349
I1
s(I7
I7
I9
tp350
I1
s(I9
I1
I8
tp351
I1
s(I10
I9
I0
tp352
I1
s(I0
I4
I7
tp353
I1
s(I1
I3
I4
tp354
I1
s(I7
I8
I5
tp355
I1
s(I0
I9
I8
tp356
I1
s(I1
I5
I0
tp357
I1
s(I4
I9
I7
tp358
I1
s(I10
I6
I6
tp359
I1
s(I4
I6
I6
tp360
I1
s(I0
I6
I8
tp361
I1
s(I9
I9
I5
tp362
I1
s(I5
I3
I11
tp363
I1
s(I10
I10
I6
tp364
I1
s(I7
I0
I8
tp365
I1
s(I0
I1
I3
tp366
I1
s(I4
I0
I3
tp367
I1
s(I11
I7
I3
tp368
I1
s(I1
I0
I6
tp369
I1
s(I3
I8
I1
tp370
I1
s(I10
I5
I0
tp371
I1
s(I4
I8
I8
tp372
I1
s(I2
I1
I8
tp373
I1
s(I8
I2
I6
tp374
I1
s(I5
I4
I2
tp375
I1
s(I2
I4
I5
tp376
I1
s(I0
I0
I4
tp377
I1
s(I6
I1
I1
tp378
I1
s(I11
I11
I3
tp379
I1
s(I7
I0
I0
tp380
I1
s(I6
I9
I9
tp381
I1
s(I3
I5
I3
tp382
I1
s(I4
I4
I8
tp383
I1
s(I0
I3
I6
tp384
I1
s(I3
I11
I3
tp385
I1
s(I7
I9
I2
tp386
I1
s(I7
I7
I2
tp387
I1
s(I1
I9
I8
tp388
I1
s(I2
I1
I0
tp389
I1
s(I0
I5
I9
tp390
I1
s(I5
I9
I1
tp391
I1
s(I10
I3
I7
tp392
I1
s(I2
I10
I9
tp393
I1
s(I0
I10
I0
tp394
I1
s(I5
I4
I10
tp395
I1
s(I1
I4
I8
tp396
I1
s(I5
I11
I4
tp397
I1
s(I4
I10
I9
tp398
I1
s(I10
I4
I1
tp399
I1
s(I4
I7
I2
tp400
I1
s(I1
I1
I5
tp401
I1
s(I2
I8
I6
tp402
I1
s(I11
I11
I11
tp403
I1
s(I7
I4
I6
tp404
I1
s(I11
I3
I2
tp405
I1
s(I2
I2
I6
tp406
I1
s(I3
I8
I10
tp407
I1
s(I8
I0
I6
tp408
I1
s(I11
I6
I9
tp409
I1
s(I8
I6
I6
tp410
I1
s(I1
I10
I1
tp411
I1
s(I4
I4
I0
tp412
I1
s(I11
I8
I1
tp413
I1
s(I7
I2
I3
tp414
I1
s(I5
I10
I8
tp415
I1
s(I8
I1
I9
tp416
I1
s(I6
I5
I11
tp417
I1
s(I2
I7
I4
tp418
I1
s(I9
I0
I8
tp419
I1
s(I3
I7
I4
tp420
I1
s(I0
I5
I1
tp421
I1
s(I11
I8
I2
tp422
I1
s(I0
I10
I8
tp423
I1
s(I5
I10
I3
tp424
I1
s(I1
I4
I0
tp425
I1
s(I7
I0
I5
tp426
I1
s(I9
I8
I7
tp427
I1
s(I10
I1
I2
tp428
I1
s(I10
I11
I2
tp429
I1
s(I7
I3
I8
tp430
I1
s(I10
I4
I11
tp431
I1
s(I8
I5
I6
tp432
I1
s(I10
I9
I9
tp433
I1
s(I2
I0
I3
tp434
I1
s(I9
I11
I11
tp435
I1
s(I3
I10
I9
tp436
I1
s(I0
I9
I1
tp437
I1
s(I5
I5
I9
tp438
I1
s(I3
I1
I0
tp439
I1
s(I1
I5
I11
tp440
I1
s(I4
I9
I8
tp441
I1
s(I1
I8
I0
tp442
I1
s(I4
I6
I1
tp443
I1
s(I4
I9
I11
tp444
I1
s(I11
I5
I5
tp445
I1
s(I5
I8
I11
tp446
I1
s(I1
I2
I4
tp447
I1
s(I11
I8
I10
tp448
I1
s(I2
I5
I7
tp449
I1
s(I1
I8
I7
tp450
I1
s(I10
I7
I2
tp451
I1
s(I11
I7
I10
tp452
I1
s(I11
I0
I4
tp453
I1
s(I6
I6
I7
tp454
I1
s(I7
I5
I4
tp455
I1
s(I8
I11
I7
tp456
I1
s(I9
I4
I2
tp457
I1
s(I0
I4
I6
tp458
I1
s(I10
I2
I8
tp459
I1
s(I7
I8
I6
tp460
I1
s(I0
I9
I9
tp461
I1
s(I10
I6
I5
tp462
I1
s(I9
I11
I3
tp463
I1
s(I0
I6
I11
tp464
I1
s(I9
I9
I4
tp465
I1
s(I10
I0
I1
tp466
I1
s(I0
I11
I0
tp467
I1
s(I5
I3
I10
tp468
I1
s(I10
I5
I5
tp469
I1
s(I10
I10
I5
tp470
I1
s(I11
I1
I2
tp471
I1
s(I0
I1
I4
tp472
I1
s(I4
I0
I2
tp473
I1
s(I5
I7
I7
tp474
I1
s(I11
I10
I9
tp475
I1
s(I9
I2
I2
tp476
I1
s(I1
I6
I5
tp477
I1
s(I10
I8
I10
tp478
I1
s(I2
I3
I2
tp479
I1
s(I6
I1
I6
tp480
I1
s(I5
I11
I7
tp481
I1
s(I10
I5
I1
tp482
I1
s(I1
I6
I10
tp483
I1
s(I6
I4
I0
tp484
I1
s(I1
I9
I3
tp485
I1
s(I4
I5
I0
tp486
I1
s(I1
I3
I11
tp487
I1
s(I8
I2
I11
tp488
I1
s(I5
I4
I3
tp489
I1
s(I3
I6
I4
tp490
I1
s(I0
I6
I3
tp491
I1
s(I10
I0
I9
tp492
I1
s(I8
I4
I0
tp493
I1
s(I9
I3
I5
tp494
I1
s(I3
I3
I9
tp495
I1
s(I7
I1
I2
tp496
I1
s(I9
I5
I1
tp497
I1
s(I2
I9
I10
tp498
I1
s(I6
I8
I0
tp499
I1
s(I4
I4
I7
tp500
I1
s(I10
I8
I2
tp501
I1
s(I3
I11
I2
tp502
I1
s(I4
I2
I7
tp503
I1
s(I7
I7
I5
tp504
I1
s(I9
I10
I1
tp505
I1
s(I4
I5
I8
tp506
I1
s(I2
I1
I1
tp507
I1
s(I0
I5
I10
tp508
I1
s(I10
I3
I0
tp509
I1
s(I0
I10
I3
tp510
I1
s(I1
I4
I9
tp511
I1
s(I4
I10
I8
tp512
I1
s(I11
I4
I3
tp513
I1
s(I8
I4
I8
tp514
I1
s(I9
I5
I9
tp515
I1
s(I3
I8
I11
tp516
I1
s(I6
I7
I1
tp517
I1
s(I8
I6
I1
tp518
I1
s(I1
I10
I2
tp519
I1
s(I6
I8
I8
tp520
I1
s(I11
I3
I7
tp521
I1
s(I5
I10
I9
tp522
I1
s(I7
I9
I9
tp523
I1
s(I5
I5
I0
tp524
I1
s(I3
I1
I7
tp525
I1
s(I6
I5
I8
tp526
I1
s(I9
I0
I9
tp527
I1
s(I10
I3
I8
tp528
I1
s(I11
I8
I3
tp529
I1
s(I3
I0
I8
tp530
I1
s(I5
I0
I6
tp531
I1
s(I9
I6
I0
tp532
I1
s(I0
I7
I9
tp533
I1
s(I9
I8
I4
tp534
I1
s(I10
I1
I3
tp535
I1
s(I2
I8
I9
tp536
I1
s(I1
I11
I5
tp537
I1
s(I6
I11
I1
tp538
I1
s(I0
I2
I4
tp539
I1
s(I7
I8
I11
tp540
I1
s(I8
I1
I2
tp541
I1
s(I9
I1
I2
tp542
I1
s(I1
I10
I10
tp543
I1
s(I2
I0
I2
tp544
I1
s(I9
I11
I10
tp545
I1
s(I10
I2
I7
tp546
I1
s(I11
I9
I4
tp547
I1
s(I8
I4
I4
tp548
I1
s(I3
I4
I0
tp549
I1
s(I1
I8
I1
tp550
I1
s(I7
I9
I5
tp551
I1
s(I11
I8
I11
tp552
I1
s(I5
I3
I1
tp553
I1
s(I2
I5
I4
tp554
I1
s(I9
I6
I8
tp555
I1
s(I3
I9
I4
tp556
I1
s(I0
I7
I1
tp557
I1
s(I10
I1
I11
tp558
I1
s(I8
I5
I0
tp559
I1
s(I3
I2
I11
tp560
I1
s(I9
I9
I3
tp561
I1
s(I2
I3
I11
tp562
I1
s(I8
I11
I4
tp563
I1
s(I9
I4
I3
tp564
I1
s(I0
I8
I5
tp565
I1
s(I5
I6
I1
tp566
I1
s(I2
I6
I10
tp567
I1
s(I9
I1
I10
tp568
I1
s(I3
I4
I6
tp569
I1
s(I0
I4
I5
tp570
I1
s(I1
I3
I2
tp571
I1
s(I7
I8
I7
tp572
I1
s(I4
I9
I1
tp573
I1
s(I9
I7
I7
tp574
I1
s(I9
I9
I7
tp575
I1
s(I0
I11
I1
tp576
I1
s(I5
I3
I9
tp577
I1
s(I10
I10
I4
tp578
I1
s(I7
I0
I10
tp579
I1
s(I0
I1
I5
tp580
I1
s(I10
I7
I11
tp581
I1
s(I4
I0
I1
tp582
I1
s(I7
I5
I5
tp583
I1
s(I1
I0
I4
tp584
I1
s(I2
I9
I3
tp585
I1
s(I5
I1
I6
tp586
I1
s(I10
I8
I5
tp587
I1
s(I11
I0
I5
tp588
I1
s(I9
I4
I11
tp589
I1
s(I10
I5
I6
tp590
I1
s(I2
I3
I1
tp591
I1
s(I5
I6
I9
tp592
I1
s(I6
I9
I0
tp593
I1
s(I1
I9
I2
tp594
I1
s(I8
I3
I10
tp595
I1
s(I8
I2
I10
tp596
I1
s(I8
I7
I7
tp597
I1
s(I3
I6
I5
tp598
I1
s(I11
I4
I4
tp599
I1
s(I6
I1
I7
tp600
I1
s(I8
I4
I7
tp601
I1
s(I8
I3
I4
tp602
I1
s(I3
I3
I8
tp603
I1
s(I8
I10
I7
tp604
I1
s(I9
I5
I0
tp605
I1
s(I9
I2
I11
tp606
I1
s(I3
I5
I1
tp607
I1
s(I4
I8
I5
tp608
I1
s(I0
I3
I4
tp609
I1
s(I6
I2
I11
tp610
I1
s(I8
I1
I3
tp611
I1
s(I8
I1
I6
tp612
I1
s(I1
I6
I3
tp613
I1
s(I1
I9
I10
tp614
I1
s(I4
I5
I9
tp615
I1
s(I10
I3
I1
tp616
I1
s(I0
I10
I2
tp617
I1
s(I11
I11
I10
tp618
I1
s(I4
I10
I11
tp619
I1
s(I0
I0
I10
tp620
I1
s(I4
I7
I0
tp621
I1
s(I0
I1
I7
tp622
I1
s(I1
I1
I7
tp623
I1
s(I7
I10
I10
tp624
I1
s(I5
I2
I7
tp625
I1
s(I10
I11
I4
tp626
I1
s(I6
I7
I2
tp627
I1
s(I3
I5
I9
tp628
I1
s(I9
I11
I1
tp629
I1
s(I8
I1
I11
tp630
I1
s(I11
I5
I3
tp631
I1
s(I10
I4
I2
tp632
I1
s(I6
I0
I4
tp633
I1
s(I11
I8
I4
tp634
I1
s(I3
I0
I9
tp635
I1
s(I7
I1
I1
tp636
I1
s(I4
I10
I3
tp637
I1
s(I9
I6
I1
tp638
I1
s(I4
I7
I8
tp639
I1
s(I0
I7
I6
tp640
I1
s(I9
I8
I5
tp641
I1
s(I3
I8
I4
tp642
I1
s(I4
I1
I7
tp643
I1
s(I7
I9
I11
tp644
I1
s(I1
I7
I4
tp645
I1
s(I2
I6
I1
tp646
I1
s(I8
I6
I8
tp647
I1
s(I5
I0
I2
tp648
I1
s(I1
I10
I11
tp649
I1
s(I10
I9
I7
tp650
I1
s(I9
I11
I9
tp651
I1
s(I10
I2
I6
tp652
I1
s(I5
I5
I11
tp653
I1
s(I6
I5
I1
tp654
I1
s(I4
I9
I10
tp655
I1
s(I1
I8
I6
tp656
I1
s(I5
I8
I9
tp657
I1
s(I1
I2
I6
tp658
I1
s(I7
I11
I9
tp659
I1
s(I4
I10
I4
tp660
I1
s(I10
I10
I3
tp661
I1
s(I5
I3
I0
tp662
I1
s(I3
I9
I3
tp663
I1
s(I11
I7
I4
tp664
I1
s(I6
I6
I5
tp665
I1
s(I11
I10
I7
tp666
I1
s(I8
I11
I5
tp667
I1
s(I9
I11
I2
tp668
I1
s(I2
I5
I5
tp669
I1
s(I5
I0
I10
tp670
I1
s(I3
I4
I7
tp671
I1
s(I11
I2
I2
tp672
I1
s(I1
I3
I1
tp673
I1
s(I8
I1
I10
tp674
I1
s(I4
I9
I2
tp675
I1
s(I10
I7
I4
tp676
I1
s(I10
I6
I3
tp677
I1
s(I4
I6
I11
tp678
I1
s(I5
I8
I1
tp679
I1
s(I2
I11
I9
tp680
I1
s(I0
I11
I6
tp681
I1
s(I9
I4
I10
tp682
I1
s(I2
I2
I11
tp683
I1
s(I4
I11
I9
tp684
I1
s(I8
I10
I5
tp685
I1
s(I3
I9
I11
tp686
I1
s(I4
I0
I0
tp687
I1
s(I5
I2
I2
tp688
I1
s(I1
I0
I5
tp689
I1
s(I2
I9
I0
tp690
I1
s(I7
I8
I4
tp691
I1
s(I9
I2
I4
tp692
I1
s(I10
I8
I4
tp693
I1
s(I6
I2
I2
tp694
I1
s(I1
I9
I5
tp695
I1
s(I7
I5
I2
tp696
I1
s(I1
I3
I9
tp697
I1
s(I7
I8
I8
tp698
I1
s(I7
I6
I0
tp699
I1
s(I10
I0
I11
tp700
I1
s(I7
I5
I3
tp701
I1
s(I9
I3
I3
tp702
I1
s(I4
I11
I1
tp703
I1
s(I9
I5
I3
tp704
I1
s(I4
I0
I8
tp705
I1
s(I11
I0
I7
tp706
I1
s(I3
I5
I0
tp707
I1
s(I7
I11
I6
tp708
I1
s(I6
I2
I10
tp709
I1
s(I4
I2
I1
tp710
I1
s(I7
I7
I7
tp711
I1
s(I8
I7
I5
tp712
I1
s(I4
I5
I10
tp713
I1
s(I0
I8
I4
tp714
I1
s(I10
I3
I2
tp715
I1
s(I7
I4
I5
tp716
I1
s(I3
I0
I2
tp717
I1
s(I2
I5
I10
tp718
I1
s(I4
I7
I1
tp719
I1
s(I1
I1
I6
tp720
I1
s(I4
I10
I0
tp721
I1
s(I10
I11
I5
tp722
I1
s(I9
I5
I11
tp723
I1
s(I10
I4
I4
tp724
I1
s(I11
I6
I4
tp725
I1
s(I1
I7
I3
tp726
I1
s(I8
I6
I3
tp727
I1
s(I8
I1
I4
tp728
I1
s(I0
I4
I11
tp729
I1
s(I5
I10
I11
tp730
I1
s(I4
I2
I9
tp731
I1
s(I3
I1
I5
tp732
I1
s(I6
I5
I6
tp733
I1
s(I6
I9
I1
tp734
I1
s(I11
I5
I2
tp735
I1
s(I10
I3
I10
tp736
I1
s(I7
I1
I6
tp737
I1
s(I10
I10
I10
tp738
I1
s(I9
I6
I2
tp739
I1
s(I1
I0
I10
tp740
I1
s(I2
I8
I11
tp741
I1
s(I3
I2
I1
tp742
I1
s(I11
I0
I0
tp743
I1
s(I3
I8
I5
tp744
I1
s(I4
I1
I0
tp745
I1
s(I7
I7
I0
tp746
I1
s(I8
I6
I11
tp747
I1
s(I8
I8
I6
tp748
I1
s(I9
I11
I8
tp749
I1
s(I10
I2
I5
tp750
I1
s(I11
I9
I2
tp751
I1
s(I0
I9
I4
tp752
I1
s(I5
I5
I10
tp753
I1
s(I8
I8
I0
tp754
I1
s(I10
I6
I10
tp755
I1
s(I3
I7
I9
tp756
I1
s(I9
I10
I7
tp757
I1
s(I5
I8
I6
tp758
I1
s(I1
I2
I7
tp759
I1
s(I8
I10
I9
tp760
I1
s(I8
I2
I1
tp761
I1
s(I8
I8
I9
tp762
I1
s(I1
I0
I2
tp763
I1
s(I6
I6
I4
tp764
I1
s(I6
I11
I11
tp765
I1
s(I9
I4
I1
tp766
I1
s(I4
I1
I8
tp767
I1
s(I2
I7
I7
tp768
I1
s(I7
I11
I4
tp769
I1
s(I5
I0
I11
tp770
I1
s(I6
I9
I6
tp771
I1
s(I11
I2
I3
tp772
I1
s(I9
I10
I8
tp773
I1
s(I11
I8
I7
tp774
I1
s(I6
I3
I6
tp775
I1
s(I8
I2
I4
tp776
I1
s(I10
I6
I2
tp777
I1
s(I4
I6
I10
tp778
I1
s(I0
I6
I4
tp779
I1
s(I8
I8
I10
tp780
I1
s(I10
I0
I2
tp781
I1
s(I2
I11
I10
tp782
I1
s(I10
I6
I11
tp783
I1
s(I3
I3
I2
tp784
I1
s(I2
I2
I10
tp785
I1
s(I7
I0
I4
tp786
I1
s(I5
I0
I5
tp787
I1
s(I4
I0
I7
tp788
I1
s(I5
I7
I4
tp789
I1
s(I2
I9
I1
tp790
I1
s(I10
I8
I7
tp791
I1
s(I6
I2
I9
tp792
I1
s(I9
I4
I9
tp793
I1
s(I4
I8
I9
tp794
I1
s(I2
I7
I8
tp795
I1
s(I8
I7
I1
tp796
I1
s(I6
I8
I11
tp797
I1
s(I2
I1
I4
tp798
I1
s(I9
I10
I0
tp799
I1
s(I3
I2
I9
tp800
I1
s(I7
I1
I5
tp801
I1
s(I5
I10
I1
tp802
I1
s(I11
I1
I5
tp803
I1
s(I11
I1
I0
tp804
I1
s(I11
I4
I6
tp805
I1
s(I9
I8
I11
tp806
I1
s(I6
I1
I5
tp807
I1
s(I8
I4
I5
tp808
I1
s(I9
I3
I2
tp809
I1
s(I3
I3
I10
tp810
I1
s(I9
I5
I2
tp811
I1
s(I6
I7
I4
tp812
I1
s(I9
I10
I11
tp813
I1
s(I4
I4
I4
tp814
I1
s(I7
I2
I7
tp815
I1
s(I11
I9
I0
tp816
I1
s(I8
I7
I9
tp817
I1
s(I6
I11
I5
tp818
I1
s(lp819
I00
aI00
aI00
aI01
aI01
aI00
aI00
aI01
aI00
aI00
aI00
aI00
aI00
aI00
aI00
aI00
aI00
aI00
aI00
aI00
aI01
aI00
aI01
aI00
aI00
aI00
aI00
aI00
aI01
aI00
aI00
aI00
aI00
aI00
aI01
aI00
aI00
aI00
aI00
aI00
aI00
aI00
aI00
aI00
aI01
aI01
aI00
aI00
aI00
aI01
aI00
aI00
aI00
aI00
aI00
aI00
aI00
aI00
aI00
aI00
aI00
aI00
aI00
aI00
aI00
aI01
aI00
aI01
aI00
aI00
aI01
aI00
aI00
aI00
aI00
aI00
aI00
aI01
aI00
aI00
aI00
aI01
aI00
aI00
aI00
aI01
aI00
aI00
aI00
aI00
aI00
aI00
aI00
aI00
aI00
aI01
aI00
aI01
aI00
aI00
aI01
aI00
aI00
aI00
aI00
aI00
aI00
aI01
aI00
aI01
aI00
aI00
aI01
aI00
aI00
aI01
aI00
aI00
aI00
aI00
aI00
aI01
aI01
aI01
aI00
aI00
aI00
aI00
aI00
aI00
aI00
aI01
aI00
aI00
aI00
aI00
aI00
aI00
aI00
aI01
aI01
aI00
aI00
aI00
aI00
aI00
aI00
aI00
aI00
aI00
aI00
aI00
aI00
aI00
aI00
aI00
aI00
aI00
aI00
aI00
aI00
aI00
aI00
aI01
aI00
aI00
aI00
aI00
aI00
aI00
aI01
aI01
aI00
aI00
aI00
aI00
aI00
aI00
aI00
aI00
aI00
aI00
aI00
aI01
aI00
aI00
aI00
aI00
aI00
aI00
aI00
aI00
aI00
aI00
aI01
aI00
aI00
aI00
aI00
aI01
aI01
aI01
aI00
aI00
aI01
aI00
aI01
aI00
aI00
aI00
aI00
aI00
aI00
aI00
aI00
aI00
aI01
aI00
aI00
aI00
aI00
aI00
aI00
aI01
aI00
aI01
aI01
aI00
aI01
aI00
aI00
aI00
aI00
aI00
aI00
aI00
aI00
aI00
aI00
aI00
aI00
aI00
aI00
aI00
aI00
aI00
aI00
aI00
aI00
aI01
aI00
aI00
aI00
aI00
aI00
aI00
aI00
aI00
aI00
aI00
aI00
aI01
aI00
aI00
aI00
aI00
aI00
aI00
aI00
aI00
aI00
aI01
aI00
aI00
aI00
aI00
aI00
aI00
aI01
aI01
aI00
aI00
aI00
aI00
aI00
aI00
aI00
aI01
aI00
aI00
aI01
aI00
aI00
aI00
aI00
aI00
aI00
aI01
aI00
aI00
aI00
aI00
aI01
aI00
aI00
aI00
aI00
aI00
aI00
aI00
aI01
aI00
aI00
aI00
aI00
aI00
aI00
aI00
aI00
aI00
aI00
aI00
aI00
aI00
aI00
aI01
aI00
aI00
aI00
aI00
aI00
aI01
aI01
aI00
aI01
aI00
aI00
aI00
aI00
aI00
aI00
aI00
aI00
aI00
aI01
aI00
aI00
aI01
aI01
aI00
aI00
aI01
aI01
aI00
aI00
aI00
aI00
aI00
aI01
aI01
aI01
aI00
aI00
aI00
aI00
aI00
aI00
aI00
aI00
aI00
aI00
aI00
aI01
aI01
aI00
aI00
aI01
aI01
aI01
aI00
aI01
aI00
aI00
aI00
aI00
aI00
aI00
aI00
aI00
aI01
aI00
aI00
aI00
aI00
aI00
aI00
aI00
aI00
aI00
aI00
aI00
aI00
aI00
aI00
aI00
aI00
aI01
aI00
aI00
aI00
aI01
aI00
aI01
aI00
aI00
aI00
aI00
aI00
aI00
aI00
aI01
aI00
aI00
aI01
aI00
aI01
aI00
aI01
aI00
aI00
aI00
aI00
aI00
aI00
aI00
aI01
aI01
aI01
aI00
aI00
aI00
aI00
aI00
aI00
aI00
aI00
aI01
aI00
aI00
aI00
aI00
aI00
aI00
aI00
aI01
aI00
aI00
aI00
aI00
aI00
aI00
aI00
aI00
aI00
aI00
aI00
aI00
aI00
aI00
aI00
aI00
aI00
aI00
aI00
aI00
aI00
aI00
aI00
aI00
aI01
aI00
aI00
aI00
aI00
aI00
aI00
aI00
aI01
aI00
aI00
aI00
aI01
aI01
aI01
aI00
aI01
aI00
aI00
aI00
aI00
aI00
aI00
aI00
aI01
aI00
aI00
aI00
aI00
aI00
aI00
aI00
aI00
aI00
aI00
aI00
aI00
aI00
aI00
aI01
aI00
aI00
aI00
aI01
aI00
aI00
aI00
aI00
aI00
aI00
aI00
aI00
aI00
aI00
aI01
aI00
aI00
aI01
aI00
aI00
aI00
aI00
aI01
aI01
aI00
aI00
aI00
aI00
aI01
aI00
aI00
aI00
aI00
aI00
aI00
aI00
aI01
aI00
aI00
aI00
aI00
aI00
aI00
aI00
aI00
aI00
aI00
aI00
aI00
aI00
aI01
aI00
aI01
aI00
aI00
aI00
aI00
aI00
aI01
aI00
aI00
aI00
aI00
aI00
aI00
aI00
aI00
aI00
aI00
aI00
aI00
aI00
aI00
aI00
aI00
aI00
aI00
aI00
aI00
aI00
aI00
aI00
aI00
aI00
aI00
aI00
aI00
aI00
aI00
aI00
aI01
aI00
aI00
aI01
aI00
aI00
aI00
aI00
aI00
aI00
aI00
aI00
aI01
aI00
aI01
aI00
aI01
aI00
aI00
aI00
aI00
aI00
aI00
aI01
aI00
aI00
aI00
aI00
aI00
aI00
aI00
aI00
aI00
aI00
aI00
aI00
aI00
aI00
aI01
aI00
aI01
aI00
aI00
aI00
aI00
aI00
aI00
aI00
aI00
aI00
aI00
aI00
aI00
aI00
aI00
aI01
aI00
aI01
aI01
aI01
aI00
aI00
aI00
aI00
aI01
aI00
aI00
aI00
aI01
aI01
aI01
aI00
aI00
aI00
aI01
aI00
aI00
aI00
aI01
aI00
aI00
aI00
aI00
aI00
aI00
aI00
aI00
aI00
aI00
aI01
aI00
aI00
aI00
aI00
aI01
aI00
aI00
aI00
aI00
aI00
aI00
aI00
aI01
aI00
aI00
aI00
aI01
aI01
aI00
aI00
aI00
aI00
aI01
aI00
aI00
aI00
aI00
aI00
aI00
aI00
aI00
aI00
aI01
aI01
aI00
aI00
aI00
aI01
aI00
aI00
aI00
aI01
aI00
aI00
aI00
aI00
aI00
aI00
aI00
aI00
aI01
aI00
aI00
aI00
aI00
aI00
aI00
aI00
aI00
aI00
aI00
aI00
aI00
aI00
aI00
aI00
aI01
aI00
aI00
aI00
aI00
aI00
aI00
aI00
aI00
aI00
aI00
aI01
aI00
aI01
aI00
aI00
aI00
aI01
aI00
aI00
aI00
aI00
aI00
aI00
aI01
aI00
aI00
aI00
aI01
aI00
aI00
aI00
aI00
aI00
aI00
aI01
aI00
aI00
aI01
aI00
aI00
aI00
aI00
aI00
aI00
aI00
aI00
aI00
aI00
aI00
aI00
aI01
aI00
aI00
aI00
aI01
aI00
aI01
aI00
aI00
aI00
aI00
aI00
aI00
aI00
aI00
aI00
aI01
aI00
aI00
aI00
aI00
aI00
aI01
aI00
aI00
aI00
aI00
aI00
aI00
aI00
aI00
aI00
aI00
aI00
aI00
aI00
aI00
aI01
aI00
aI00
aI00
aI00
aI00
aI01
aI00
aI00
aI01
aI00
aI00
aI00
aI00
aI00
aI00
aI00
aI00
aI00
aI00
aI00
aI00
aI00
aI01
aI00
aI00
aI00
aI00
aI00
aI00
aI00
aI00
aI01
aI01
aI00
aI01
aI00
aI00
aI00
aI01
aI00
aI00
aI00
aI00
aI00
aI00
aI00
aI00
aI01
aI00
aI00
aI00
aI00
aI00
aI00
aI00
aI00
aI00
aI00
aI01
aI00
aI00
aI01
aI01
aI00
aI00
aI00
aI00
aI01
aI01
aI00
aI00
aI00
aI00
aI00
aI00
aI00
aI00
aI01
aI00
aI00
aI00
aI00
aI00
aI01
aI00
aI00
aI01
aI00
aI00
aI00
aI00
aI00
aI00
aI00
aI01
aI00
aI00
aI00
aI00
aI00
aI01
aI00
aI00
aI00
aI01
aI00
aI00
aI01
aI00
aI01
aI00
aI00
aI00
aI00
aI00
aI01
aI00
aI00
aI00
aI00
aI01
aI00
aI00
aI00
aI00
aI00
aI00
aI00
aI00
aI00
aI00
aI00
aI00
aI01
aI00
aI00
aI01
aI00
aI00
aI00
aI00
aI00
aI01
aI01
aI00
aI00
aI00
aI01
aI00
aI00
aI00
aI00
aI00
aI00
aI00
aI00
aI00
aI00
aI01
aI00
aI01
aI00
aI00
aI00
aI00
aI00
aI00
aI00
aI00
aI00
aI01
aI00
aI00
aI00
aI00
aI00
aI00
aI00
aI00
aI01
aI00
aI00
aI00
aI00
aI00
aI00
aI00
aI01
aI00
aI00
aI00
aI01
aI01
aI00
aI00
aI00
aI00
aI00
aI00
aI00
aI00
aI00
aI00
aI00
aI01
aI00
aI00
aI01
aI00
aI00
aI00
aI00
aI00
aI00
aI00
aI00
aI00
aI00
aI00
aI01
aI00
aI00
aI00
aI01
aI00
aI00
aI01
aI00
aI00
aI01
aI00
aI00
aI00
aI00
aI00
aI01
aI01
aI00
aI00
aI01
aI00
aI00
aI00
aI00
aI01
aI00
aI00
aI00
aI00
aI00
aI00
aI00
aI01
aI00
aI00
aI00
aI00
aI00
aI01
aI00
aI00
aI00
aI00
aI00
aI00
aI00
aI01
aI01
aI00
aI00
aI00
aI00
aI01
aI00
aI00
aI00
aI00
aI00
aI01
aI00
aI00
aI00
aI01
aI00
aI00
aI00
aI00
aI00
aI01
aI00
aI00
aI00
aI00
aI01
aI00
aI00
aI00
aI00
aI00
aI01
aI00
aI01
aI00
aI01
aI00
aI00
aI00
aI00
aI00
aI00
aI00
aI00
aI00
aI00
aI00
aI00
aI00
aI00
aI00
aI00
aI00
aI00
aI00
aI00
aI00
aI00
aI00
aI00
aI01
aI00
aI00
aI00
aI00
aI00
aI00
aI01
aI01
aI00
aI00
aI00
aI01
aI00
aI00
aI00
aI00
aI01
aI00
aI01
aI01
aI00
aI00
aI00
aI01
aI00
aI01
aI00
aI00
aI01
aI00
aI00
aI00
aI00
aI00
aI00
aI00
aI00
aI00
aI01
aI00
aI01
aI00
aI00
aI01
aI00
aI00
aI00
aI00
aI00
aI00
aI00
aI00
aI00
aI00
aI00
aI00
aI00
aI00
aI01
aI00
aI00
aI00
aI00
aI01
aI00
aI00
aI00
aI00
aI00
aI00
aI00
aI00
aI00
aI00
aI00
aI00
aI00
aI00
aI00
aI00
aI00
aI00
aI00
aI00
aI00
aI00
aI00
aI01
aI00
aI00
aI00
aI00
aI00
aI00
aI00
aI00
aI00
aI00
aI01
aI00
aI00
aI00
aI00
aI00
aI01
aI00
aI01
aI00
aI00
aI01
aI00
aI00
aI00
aI01
aI00
aI00
aI00
aI00
aI00
aI00
aI00
aI00
aI00
aI01
aI01
aI00
aI00
aI00
aI00
aI00
aI01
aI00
aI00
aI00
aI01
aI00
aI00
aI00
aI00
aI00
aI00
aI00
aI00
aI00
aI00
aI00
aI00
aI00
aI00
aI01
aI00
aI00
aI00
aI00
aI01
aI00
aI00
aI01
aI01
aI00
aI00
aI01
aI00
aI00
aI01
aI00
aI00
aI01
aI00
aI00
aI00
aI00
aI00
aI00
aI00
aI00
aI00
aI00
aI00
aI00
aI00
aI00
aI00
aI00
aI00
aI00
aI00
aI00
aI01
aI00
aI00
aI00
aI01
aI00
aI00
aI00
aI00
aI00
aI00
aI00
aI01
aI01
aI00
aI01
aI00
aI01
aI00
aI00
aI00
aI01
aI00
aI00
aI00
aI00
aI00
aI01
aI00
aI00
aI00
aI00
aI00
aI01
aI01
aI01
aI00
aI00
aI00
aI00
aI00
aI00
aI00
aI00
aI00
aI00
aI00
aI00
aI00
aI01
aI00
aI00
aI00
aI00
aI00
aI00
aI00
aI00
aI00
aI01
aI01
aI00
aI00
aI00
aI00
aI00
aI00
aI00
aI00
aI00
aI00
aI00
aI00
aI00
aI00
aI00
aI00
aI00
aI00
aI00
aI00
aI01
aI00
aI00
aI00
aI00
aI00
aI00
aI01
aI01
aI00
aI01
aI00
aI00
aI00
aI00
aI00
aI00
aI00
aI00
aI00
aI00
aI00
aI00
aI00
aI00
aI00
aI00
aI00
aI00
aI01
aI00
aI00
aI00
aI00
aI00
aI00
aI00
aI00
aI00
aI01
aI00
aI00
aI00
aI01
aI01
aI00
aI00
aI01
aI00
aI00
aI00
aI00
aI01
aI00
aI00
aI00
aI00
aI01
aI01
aI01
aI01
aI00
aI00
aI00
aI00
aI00
aI00
aI00
aI00
aI00
aI00
aI00
aI00
aI00
aI00
aI00
aI00
aI00
aI00
aI01
aI00
aI01
aI00
aI01
aI00
aI01
aI00
aI01
aI00
aI00
aI00
aI01
aI00
aI00
aI00
aI00
aI00
aI01
aI00
aI01
aI00
aI00
aI00
aI01
aI00
aI00
aI00
aI00
aI00
aI01
aI00
aI01
aI00
aI00
aI00
aI00
aI00
aI01
aI01
aI00
aI00
aI00
aI00
aI01
aI00
aI00
aI01
aI00
aI00
aI00
aI00
aI01
aI00
aI00
aI00
aI00
aI00
aI00
aI00
aI00
aI00
aI00
aI00
aI01
aI00
aI00
aI00
aI00
aI01
aI00
aI00
aI00
aI00
aI01
aI00
aI01
aI00
aI00
aI00
aI00
aI00
aI00
aI00
aI00
aI00
aI00
aI00
aI01
aI00
aI00
aI00
aI00
aI00
aI01
aI00
aI01
aI00
aI00
aI00
aI00
aI00
aI01
aI00
aI00
aI00
aI00
aS'78'
p820
tp821
.