((dp0
(I1
I2
I8
tp1
I1
s(I10
I3
I3
tp2
I1
s(I2
I5
I11
tp3
I1
s(I0
I0
I8
tp4
I1
s(I14
I4
I3
tp5
I1
s(I3
I6
I11
tp6
I1
s(I7
I12
I4
tp7
I1
s(I8
I2
I0
tp8
I1
s(I6
I6
I11
tp9
I1
s(I6
I0
I14
tp10
I1
s(I8
I4
I13
tp11
I1
s(I1
I11
I10
tp12
I1
s(I0
I2
I1
tp13
I1
s(I5
I12
I5
tp14
I1
s(I12
I7
I8
tp15
I1
s(I7
I0
I6
tp16
I1
s(I6
I8
I13
tp17
I1
s(I9
I7
I10
tp18
I1
s(I2
I0
I7
tp19
I1
s(I0
I4
I10
tp20
I1
s(I14
I11
I7
tp21
I1
s(I2
I13
I4
tp22
I1
s(I7
I9
I14
tp23
I1
s(I5
I5
I5
tp24
I1
s(I3
I1
I4
tp25
I1
s(I6
I5
I7
tp26
I1
s(I8
I8
I7
tp27
I1
s(I12
I13
I14
tp28
I1
s(I6
I14
I6
tp29
I1
s(I11
I5
I1
tp30
I1
s(I11
I8
I6
tp31
I1
s(I4
I10
I5
tp32
I1
s(I3
I0
I11
tp33
I1
s(I4
I7
I14
tp34
I1
s(I11
I7
I14
tp35
I1
s(I0
I7
I4
tp36
I1
s(I2
I8
I10
tp37
I1
s(I0
I12
I5
tp38
I1
s(I3
I2
I6
tp39
I1
s(I8
I11
I3
tp40
I1
s(I12
I9
I4
tp41
I1
s(I6
I13
I8
tp42
I1
s(I4
I1
I1
tp43
I1
s(I7
I10
I7
tp44
I1
s(I9
I14
I6
tp45
I1
s(I13
I8
I7
tp46
I1
s(I11
I13
I12
tp47
I1
s(I9
I1
I7
tp48
I1
s(I9
I3
I7
tp49
I1
s(I8
I13
I14
tp50
I1
s(I2
I4
I8
tp51
I1
s(I7
I6
I2
tp52
I1
s(I10
I1
I6
tp53
I1
s(I12
I4
I14
tp54
I1
s(I6
I1
I10
tp55
I1
s(I8
I3
I12
tp56
I1
s(I6
I10
I3
tp57
I1
s(I13
I5
I3
tp58
I1
s(I11
I1
I6
tp59
I1
s(I9
I6
I11
tp60
I1
s(I1
I0
I3
tp61
I1
s(I13
I3
I8
tp62
I1
s(I0
I3
I11
tp63
I1
s(I9
I4
I14
tp64
I1
s(I14
I10
I8
tp65
I1
s(I2
I12
I7
tp66
I1
s(I5
I6
I4
tp67
I1
s(I8
I7
I6
tp68
I1
s(I6
I9
I7
tp69
I1
s(I5
I9
I12
tp70
I1
s(I0
I9
I13
tp71
I1
s(I10
I13
I8
tp72
I1
s(I9
I5
I10
tp73
I1
s(I1
I8
I12
tp74
I1
s(I13
I0
I2
tp75
I1
s(I0
I11
I4
tp76
I1
s(I3
I3
I5
tp77
I1
s(I12
I8
I3
tp78
I1
s(I6
I12
I11
tp79
I1
s(I2
I9
I14
tp80
I1
s(I11
I10
I13
tp81
I1
s(I5
I1
I3
tp82
I1
s(I14
I0
I12
tp83
I1
s(I9
I4
I3
tp84
I1
s(I10
I5
I5
tp85
I1
s(I14
I13
I4
tp86
I1
s(I2
I7
I9
tp87
I1
s(I7
I0
I1
tp88
I1
s(I7
I14
I8
tp89
I1
s(I10
I3
I4
tp90
I1
s(I13
I6
I2
tp91
I1
s(I9
I7
I12
tp92
I1
s(I1
I1
I0
tp93
I1
s(I8
I4
I4
tp94
I1
s(I13
I4
I9
tp95
I1
s(I2
I2
I1
tp96
I1
s(I0
I2
I8
tp97
I1
s(I1
I7
I9
tp98
I1
s(I12
I12
I8
tp99
I1
s(I6
I8
I4
tp100
I1
s(I3
I11
I6
tp101
I1
s(I7
I9
I5
tp102
I1
s(I3
I1
I11
tp103
I1
s(I12
I0
I0
tp104
I1
s(I6
I5
I12
tp105
I1
s(I12
I13
I7
tp106
I1
s(I4
I5
I12
tp107
I1
s(I11
I5
I8
tp108
I1
s(I0
I5
I6
tp109
I1
s(I3
I13
I3
tp110
I1
s(I3
I0
I4
tp111
I1
s(I8
I9
I1
tp112
I1
s(I5
I1
I14
tp113
I1
s(I0
I7
I13
tp114
I1
s(I9
I8
I0
tp115
I1
s(I13
I10
I5
tp116
I1
s(I11
I11
I14
tp117
I1
s(I10
I4
I6
tp118
I1
s(I11
I6
I2
tp119
I1
s(I2
I6
I6
tp120
I1
s(I14
I1
I4
tp121
I1
s(I4
I9
I12
tp122
I1
s(I6
I3
I8
tp123
I1
s(I8
I1
I14
tp124
I1
s(I13
I7
I13
tp125
I1
s(I9
I0
I13
tp126
I1
s(I3
I7
I3
tp127
I1
s(I8
I14
I6
tp128
I1
s(I12
I4
I5
tp129
I1
s(I6
I0
I11
tp130
I1
s(I4
I12
I0
tp131
I1
s(I6
I10
I10
tp132
I1
s(I13
I5
I10
tp133
I1
s(I7
I12
I13
tp134
I1
s(I1
I0
I8
tp135
I1
s(I4
I14
I9
tp136
I1
s(I1
I11
I1
tp137
I1
s(I6
I11
I5
tp138
I1
s(I11
I0
I2
tp139
I1
s(I9
I4
I7
tp140
I1
s(I3
I8
I7
tp141
I1
s(I0
I8
I9
tp142
I1
s(I11
I2
I9
tp143
I1
s(I7
I11
I3
tp144
I1
s(I3
I10
I2
tp145
I1
s(I11
I9
I0
tp146
I1
s(I12
I1
I8
tp147
I1
s(I8
I8
I14
tp148
I1
s(I12
I14
I1
tp149
I1
s(I13
I0
I11
tp150
I1
s(I0
I6
I14
tp151
I1
s(I9
I9
I3
tp152
I1
s(I13
I11
I2
tp153
I1
s(I2
I11
I12
tp154
I1
s(I7
I11
I10
tp155
I1
s(I5
I3
I5
tp156
I1
s(I10
I10
I0
tp157
I1
s(I1
I14
I4
tp158
I1
s(I7
I10
I11
tp159
I1
s(I11
I7
I1
tp160
I1
s(I2
I9
I7
tp161
I1
s(I9
I3
I12
tp162
I1
s(I6
I2
I7
tp163
I1
s(I4
I1
I10
tp164
I1
s(I9
I7
I7
tp165
I1
s(I14
I13
I13
tp166
I1
s(I11
I12
I5
tp167
I1
s(I5
I0
I9
tp168
I1
s(I3
I4
I2
tp169
I1
s(I8
I13
I7
tp170
I1
s(I13
I12
I5
tp171
I1
s(I4
I3
I1
tp172
I1
s(I9
I12
I2
tp173
I1
s(I13
I6
I11
tp174
I1
s(I0
I0
I6
tp175
I1
s(I14
I7
I11
tp176
I1
s(I11
I1
I13
tp177
I1
s(I5
I12
I11
tp178
I1
s(I14
I5
I14
tp179
I1
s(I5
I7
I2
tp180
I1
s(I4
I4
I10
tp181
I1
s(I13
I3
I7
tp182
I1
s(I7
I2
I13
tp183
I1
s(I0
I3
I0
tp184
I1
s(I14
I11
I9
tp185
I1
s(I3
I11
I1
tp186
I1
s(I2
I12
I14
tp187
I1
s(I1
I9
I6
tp188
I1
s(I2
I1
I2
tp189
I1
s(I5
I9
I7
tp190
I1
s(I13
I12
I3
tp191
I1
s(I2
I10
I11
tp192
I1
s(I5
I4
I4
tp193
I1
s(I1
I4
I10
tp194
I1
s(I9
I8
I9
tp195
I1
s(I11
I11
I9
tp196
I1
s(I9
I3
I0
tp197
I1
s(I3
I3
I12
tp198
I1
s(I12
I8
I10
tp199
I1
s(I6
I13
I6
tp200
I1
s(I7
I4
I9
tp201
I1
s(I5
I1
I10
tp202
I1
s(I8
I12
I0
tp203
I1
s(I8
I1
I7
tp204
I1
s(I13
I7
I4
tp205
I1
s(I9
I0
I10
tp206
I1
s(I14
I6
I12
tp207
I1
s(I7
I13
I9
tp208
I1
s(I10
I3
I13
tp209
I1
s(I4
I12
I7
tp210
I1
s(I2
I5
I9
tp211
I1
s(I11
I14
I12
tp212
I1
s(I9
I6
I5
tp213
I1
s(I14
I4
I13
tp214
I1
s(I2
I14
I0
tp215
I1
s(I1
I4
I7
tp216
I1
s(I12
I5
I3
tp217
I1
s(I6
I6
I9
tp218
I1
s(I7
I3
I14
tp219
I1
s(I14
I10
I6
tp220
I1
s(I12
I7
I14
tp221
I1
s(I8
I6
I12
tp222
I1
s(I2
I0
I1
tp223
I1
s(I0
I4
I8
tp224
I1
s(I5
I10
I6
tp225
I1
s(I13
I13
I0
tp226
I1
s(I2
I13
I10
tp227
I1
s(I5
I5
I7
tp228
I1
s(I3
I1
I2
tp229
I1
s(I10
I12
I2
tp230
I1
s(I11
I5
I7
tp231
I1
s(I9
I9
I10
tp232
I1
s(I14
I9
I0
tp233
I1
s(I7
I11
I13
tp234
I1
s(I12
I2
I0
tp235
I1
s(I6
I12
I5
tp236
I1
s(I4
I7
I12
tp237
I1
s(I0
I7
I2
tp238
I1
s(I13
I10
I14
tp239
I1
s(I11
I10
I3
tp240
I1
s(I5
I2
I11
tp241
I1
s(I8
I11
I1
tp242
I1
s(I12
I9
I6
tp243
I1
s(I4
I1
I3
tp244
I1
s(I9
I14
I0
tp245
I1
s(I13
I8
I5
tp246
I1
s(I0
I14
I4
tp247
I1
s(I8
I13
I8
tp248
I1
s(I1
I3
I5
tp249
I1
s(I6
I3
I1
tp250
I1
s(I4
I3
I6
tp251
I1
s(I9
I12
I11
tp252
I1
s(I7
I6
I0
tp253
I1
s(I3
I7
I10
tp254
I1
s(I6
I1
I8
tp255
I1
s(I13
I5
I5
tp256
I1
s(I11
I1
I4
tp257
I1
s(I0
I1
I2
tp258
I1
s(I7
I0
I2
tp259
I1
s(I8
I5
I13
tp260
I1
s(I6
I11
I14
tp261
I1
s(I13
I3
I14
tp262
I1
s(I0
I3
I9
tp263
I1
s(I13
I14
I1
tp264
I1
s(I0
I8
I0
tp265
I1
s(I6
I4
I6
tp266
I1
s(I4
I8
I9
tp267
I1
s(I1
I9
I1
tp268
I1
s(I14
I2
I0
tp269
I1
s(I2
I1
I11
tp270
I1
s(I9
I10
I11
tp271
I1
s(I6
I0
I12
tp272
I1
s(I3
I12
I12
tp273
I1
s(I10
I13
I14
tp274
I1
s(I12
I14
I8
tp275
I1
s(I11
I4
I9
tp276
I1
s(I0
I6
I1
tp277
I1
s(I14
I14
I8
tp278
I1
s(I11
I11
I0
tp279
I1
s(I0
I11
I10
tp280
I1
s(I5
I3
I12
tp281
I1
s(I3
I3
I7
tp282
I1
s(I8
I10
I2
tp283
I1
s(I4
I0
I4
tp284
I1
s(I0
I13
I5
tp285
I1
s(I9
I2
I8
tp286
I1
s(I10
I8
I0
tp287
I1
s(I1
I12
I4
tp288
I1
s(I10
I5
I11
tp289
I1
s(I8
I1
I0
tp290
I1
s(I2
I7
I11
tp291
I1
s(I7
I7
I3
tp292
I1
s(I12
I11
I13
tp293
I1
s(I10
I3
I6
tp294
I1
s(I13
I6
I4
tp295
I1
s(I12
I5
I12
tp296
I1
s(I1
I1
I2
tp297
I1
s(I4
I13
I1
tp298
I1
s(I0
I2
I10
tp299
I1
s(I3
I8
I9
tp300
I1
s(I10
I14
I12
tp301
I1
s(I12
I12
I6
tp302
I1
s(I1
I10
I0
tp303
I1
s(I2
I0
I8
tp304
I1
s(I11
I3
I5
tp305
I1
s(I11
I9
I14
tp306
I1
s(I7
I9
I11
tp307
I1
s(I12
I0
I6
tp308
I1
s(I6
I14
I3
tp309
I1
s(I4
I5
I14
tp310
I1
s(I9
I9
I7
tp311
I1
s(I14
I9
I9
tp312
I1
s(I11
I8
I1
tp313
I1
s(I5
I4
I13
tp314
I1
s(I1
I4
I3
tp315
I1
s(I3
I6
I2
tp316
I1
s(I4
I7
I5
tp317
I1
s(I6
I7
I10
tp318
I1
s(I10
I11
I1
tp319
I1
s(I8
I11
I14
tp320
I1
s(I4
I1
I4
tp321
I1
s(I9
I14
I9
tp322
I1
s(I14
I12
I1
tp323
I1
s(I2
I6
I4
tp324
I1
s(I7
I4
I2
tp325
I1
s(I5
I0
I7
tp326
I1
s(I14
I1
I10
tp327
I1
s(I3
I5
I12
tp328
I1
s(I12
I10
I14
tp329
I1
s(I13
I7
I11
tp330
I1
s(I7
I6
I9
tp331
I1
s(I8
I14
I0
tp332
I1
s(I12
I4
I3
tp333
I1
s(I1
I2
I3
tp334
I1
s(I8
I3
I11
tp335
I1
s(I6
I10
I8
tp336
I1
s(I13
I5
I12
tp337
I1
s(I2
I5
I6
tp338
I1
s(I0
I1
I11
tp339
I1
s(I10
I1
I13
tp340
I1
s(I3
I11
I5
tp341
I1
s(I7
I3
I1
tp342
I1
s(I9
I4
I5
tp343
I1
s(I14
I10
I13
tp344
I1
s(I0
I8
I7
tp345
I1
s(I13
I2
I2
tp346
I1
s(I14
I8
I10
tp347
I1
s(I7
I8
I5
tp348
I1
s(I3
I10
I8
tp349
I1
s(I13
I0
I9
tp350
I1
s(I13
I11
I0
tp351
I1
s(I0
I11
I3
tp352
I1
s(I5
I3
I11
tp353
I1
s(I10
I10
I6
tp354
I1
s(I8
I10
I13
tp355
I1
s(I6
I7
I2
tp356
I1
s(I9
I10
I9
tp357
I1
s(I11
I10
I8
tp358
I1
s(I9
I2
I1
tp359
I1
s(I10
I8
I11
tp360
I1
s(I6
I2
I5
tp361
I1
s(I8
I9
I7
tp362
I1
s(I13
I8
I10
tp363
I1
s(I7
I7
I10
tp364
I1
s(I14
I6
I2
tp365
I1
s(I3
I4
I12
tp366
I1
s(I12
I11
I2
tp367
I1
s(I1
I3
I12
tp368
I1
s(I8
I2
I8
tp369
I1
s(I9
I12
I0
tp370
I1
s(I2
I4
I5
tp371
I1
s(I5
I14
I2
tp372
I1
s(I3
I6
I7
tp373
I1
s(I6
I1
I1
tp374
I1
s(I2
I2
I14
tp375
I1
s(I5
I7
I0
tp376
I1
s(I12
I6
I4
tp377
I1
s(I6
I8
I1
tp378
I1
s(I7
I2
I11
tp379
I1
s(I0
I3
I6
tp380
I1
s(I10
I6
I1
tp381
I1
s(I1
I6
I1
tp382
I1
s(I8
I7
I13
tp383
I1
s(I13
I1
I10
tp384
I1
s(I3
I13
I8
tp385
I1
s(I2
I10
I9
tp386
I1
s(I11
I14
I0
tp387
I1
s(I10
I13
I7
tp388
I1
s(I8
I9
I12
tp389
I1
s(I11
I4
I2
tp390
I1
s(I11
I11
I11
tp391
I1
s(I5
I2
I5
tp392
I1
s(I12
I3
I1
tp393
I1
s(I10
I11
I10
tp394
I1
s(I12
I8
I8
tp395
I1
s(I6
I13
I4
tp396
I1
s(I14
I12
I8
tp397
I1
s(I7
I4
I11
tp398
I1
s(I9
I3
I9
tp399
I1
s(I3
I5
I11
tp400
I1
s(I8
I12
I6
tp401
I1
s(I2
I7
I4
tp402
I1
s(I9
I0
I8
tp403
I1
s(I3
I7
I4
tp404
I1
s(I7
I13
I7
tp405
I1
s(I8
I14
I11
tp406
I1
s(I6
I0
I2
tp407
I1
s(I4
I12
I5
tp408
I1
s(I11
I11
I13
tp409
I1
s(I7
I1
I7
tp410
I1
s(I5
I13
I10
tp411
I1
s(I1
I11
I6
tp412
I1
s(I13
I4
I4
tp413
I1
s(I7
I3
I8
tp414
I1
s(I0
I8
I14
tp415
I1
s(I12
I7
I12
tp416
I1
s(I13
I2
I11
tp417
I1
s(I0
I4
I14
tp418
I1
s(I9
I11
I11
tp419
I1
s(I5
I5
I9
tp420
I1
s(I3
I1
I0
tp421
I1
s(I4
I9
I8
tp422
I1
s(I6
I14
I10
tp423
I1
s(I5
I8
I11
tp424
I1
s(I14
I9
I6
tp425
I1
s(I11
I8
I10
tp426
I1
s(I5
I3
I2
tp427
I1
s(I12
I2
I2
tp428
I1
s(I10
I10
I13
tp429
I1
s(I2
I3
I9
tp430
I1
s(I7
I5
I8
tp431
I1
s(I11
I0
I4
tp432
I1
s(I13
I10
I8
tp433
I1
s(I11
I10
I1
tp434
I1
s(I0
I12
I9
tp435
I1
s(I9
I2
I6
tp436
I1
s(I8
I11
I7
tp437
I1
s(I1
I13
I14
tp438
I1
s(I4
I1
I13
tp439
I1
s(I9
I14
I2
tp440
I1
s(I9
I1
I11
tp441
I1
s(I3
I4
I5
tp442
I1
s(I13
I3
I0
tp443
I1
s(I1
I3
I3
tp444
I1
s(I7
I4
I13
tp445
I1
s(I9
I12
I9
tp446
I1
s(I2
I4
I12
tp447
I1
s(I7
I6
I6
tp448
I1
s(I12
I4
I10
tp449
I1
s(I6
I1
I14
tp450
I1
s(I13
I14
I7
tp451
I1
s(I13
I5
I7
tp452
I1
s(I7
I0
I9
tp453
I1
s(I14
I5
I5
tp454
I1
s(I3
I9
I13
tp455
I1
s(I1
I0
I7
tp456
I1
s(I2
I3
I2
tp457
I1
s(I9
I4
I10
tp458
I1
s(I3
I11
I10
tp459
I1
s(I1
I6
I10
tp460
I1
s(I6
I0
I3
tp461
I1
s(I8
I7
I2
tp462
I1
s(I13
I1
I13
tp463
I1
s(I2
I1
I9
tp464
I1
s(I9
I10
I13
tp465
I1
s(I7
I8
I14
tp466
I1
s(I5
I4
I3
tp467
I1
s(I12
I1
I3
tp468
I1
s(I12
I14
I10
tp469
I1
s(I11
I4
I11
tp470
I1
s(I0
I6
I3
tp471
I1
s(I3
I12
I0
tp472
I1
s(I7
I10
I5
tp473
I1
s(I9
I3
I5
tp474
I1
s(I12
I3
I6
tp475
I1
s(I8
I10
I4
tp476
I1
s(I12
I8
I7
tp477
I1
s(I6
I3
I2
tp478
I1
s(I3
I14
I11
tp479
I1
s(I0
I13
I7
tp480
I1
s(I9
I2
I10
tp481
I1
s(I8
I1
I2
tp482
I1
s(I14
I13
I0
tp483
I1
s(I2
I7
I13
tp484
I1
s(I7
I13
I14
tp485
I1
s(I6
I0
I13
tp486
I1
s(I11
I14
I3
tp487
I1
s(I0
I0
I11
tp488
I1
s(I3
I6
I12
tp489
I1
s(I12
I5
I14
tp490
I1
s(I1
I1
I4
tp491
I1
s(I14
I2
I10
tp492
I1
s(I1
I11
I13
tp493
I1
s(I5
I14
I10
tp494
I1
s(I2
I2
I5
tp495
I1
s(I0
I2
I12
tp496
I1
s(I10
I14
I10
tp497
I1
s(I8
I6
I1
tp498
I1
s(I12
I12
I4
tp499
I1
s(I1
I10
I2
tp500
I1
s(I6
I8
I8
tp501
I1
s(I11
I3
I7
tp502
I1
s(I9
I11
I2
tp503
I1
s(I14
I11
I4
tp504
I1
s(I8
I9
I9
tp505
I1
s(I6
I5
I8
tp506
I1
s(I12
I13
I11
tp507
I1
s(I11
I5
I12
tp508
I1
s(I13
I12
I14
tp509
I1
s(I7
I11
I6
tp510
I1
s(I12
I11
I5
tp511
I1
s(I3
I0
I8
tp512
I1
s(I10
I0
I6
tp513
I1
s(I8
I9
I5
tp514
I1
s(I9
I8
I4
tp515
I1
s(I13
I10
I1
tp516
I1
s(I2
I8
I9
tp517
I1
s(I0
I12
I0
tp518
I1
s(I5
I2
I14
tp519
I1
s(I3
I2
I3
tp520
I1
s(I11
I1
I12
tp521
I1
s(I1
I13
I1
tp522
I1
s(I10
I4
I10
tp523
I1
s(I9
I5
I4
tp524
I1
s(I9
I14
I11
tp525
I1
s(I2
I6
I2
tp526
I1
s(I9
I1
I2
tp527
I1
s(I9
I12
I14
tp528
I1
s(I13
I7
I9
tp529
I1
s(I4
I11
I10
tp530
I1
s(I8
I14
I2
tp531
I1
s(I12
I4
I1
tp532
I1
s(I8
I3
I9
tp533
I1
s(I6
I10
I6
tp534
I1
s(I13
I5
I14
tp535
I1
s(I5
I13
I5
tp536
I1
s(I3
I9
I4
tp537
I1
s(I1
I0
I12
tp538
I1
s(I10
I1
I11
tp539
I1
s(I8
I5
I0
tp540
I1
s(I6
I11
I9
tp541
I1
s(I13
I3
I11
tp542
I1
s(I5
I11
I14
tp543
I1
s(I14
I10
I11
tp544
I1
s(I2
I12
I2
tp545
I1
s(I0
I8
I5
tp546
I1
s(I12
I7
I5
tp547
I1
s(I6
I9
I0
tp548
I1
s(I2
I1
I14
tp549
I1
s(I11
I2
I13
tp550
I1
s(I0
I4
I5
tp551
I1
s(I14
I8
I12
tp552
I1
s(I3
I10
I6
tp553
I1
s(I7
I8
I7
tp554
I1
s(I8
I8
I10
tp555
I1
s(I10
I6
I4
tp556
I1
s(I7
I5
I13
tp557
I1
s(I0
I6
I10
tp558
I1
s(I5
I8
I0
tp559
I1
s(I3
I12
I9
tp560
I1
s(I2
I11
I8
tp561
I1
s(I0
I11
I1
tp562
I1
s(I5
I3
I9
tp563
I1
s(I3
I3
I0
tp564
I1
s(I10
I7
I11
tp565
I1
s(I2
I9
I3
tp566
I1
s(I14
I0
I11
tp567
I1
s(I10
I8
I5
tp568
I1
s(I12
I9
I9
tp569
I1
s(I6
I2
I3
tp570
I1
s(I9
I13
I13
tp571
I1
s(I14
I13
I9
tp572
I1
s(I11
I12
I1
tp573
I1
s(I8
I13
I3
tp574
I1
s(I12
I11
I0
tp575
I1
s(I1
I3
I10
tp576
I1
s(I4
I14
I13
tp577
I1
s(I3
I11
I11
tp578
I1
s(I0
I0
I2
tp579
I1
s(I3
I6
I5
tp580
I1
s(I10
I0
I8
tp581
I1
s(I4
I13
I12
tp582
I1
s(I11
I13
I14
tp583
I1
s(I13
I4
I10
tp584
I1
s(I2
I2
I12
tp585
I1
s(I11
I1
I9
tp586
I1
s(I10
I14
I1
tp587
I1
s(I12
I12
I11
tp588
I1
s(I7
I2
I9
tp589
I1
s(I14
I11
I13
tp590
I1
s(I13
I14
I12
tp591
I1
s(I7
I9
I0
tp592
I1
s(I12
I0
I3
tp593
I1
s(I11
I12
I7
tp594
I1
s(I4
I5
I9
tp595
I1
s(I0
I5
I11
tp596
I1
s(I9
I10
I6
tp597
I1
s(I0
I10
I2
tp598
I1
s(I5
I4
I8
tp599
I1
s(I1
I4
I6
tp600
I1
s(I10
I13
I5
tp601
I1
s(I8
I9
I14
tp602
I1
s(I13
I13
I4
tp603
I1
s(I4
I7
I0
tp604
I1
s(I9
I8
I13
tp605
I1
s(I14
I14
I5
tp606
I1
s(I2
I8
I0
tp607
I1
s(I7
I10
I10
tp608
I1
s(I6
I13
I2
tp609
I1
s(I8
I0
I4
tp610
I1
s(I11
I6
I7
tp611
I1
s(I9
I14
I12
tp612
I1
s(I13
I9
I11
tp613
I1
s(I11
I13
I6
tp614
I1
s(I0
I13
I8
tp615
I1
s(I8
I1
I11
tp616
I1
s(I2
I7
I6
tp617
I1
s(I7
I13
I5
tp618
I1
s(I8
I14
I5
tp619
I1
s(I1
I2
I14
tp620
I1
s(I8
I3
I6
tp621
I1
s(I6
I10
I13
tp622
I1
s(I13
I5
I9
tp623
I1
s(I5
I13
I12
tp624
I1
s(I14
I4
I9
tp625
I1
s(I12
I5
I7
tp626
I1
s(I10
I1
I0
tp627
I1
s(I6
I11
I2
tp628
I1
s(I7
I3
I10
tp629
I1
s(I0
I2
I7
tp630
I1
s(I3
I8
I4
tp631
I1
s(I1
I7
I4
tp632
I1
s(I8
I6
I8
tp633
I1
s(I13
I2
I5
tp634
I1
s(I11
I2
I10
tp635
I1
s(I0
I4
I12
tp636
I1
s(I9
I11
I9
tp637
I1
s(I12
I2
I9
tp638
I1
s(I11
I9
I3
tp639
I1
s(I12
I1
I13
tp640
I1
s(I4
I9
I10
tp641
I1
s(I1
I8
I6
tp642
I1
s(I13
I0
I12
tp643
I1
s(I0
I6
I13
tp644
I1
s(I9
I9
I14
tp645
I1
s(I14
I9
I4
tp646
I1
s(I4
I12
I11
tp647
I1
s(I4
I10
I4
tp648
I1
s(I10
I10
I3
tp649
I1
s(I6
I12
I1
tp650
I1
s(I11
I7
I4
tp651
I1
s(I13
I10
I10
tp652
I1
s(I11
I10
I7
tp653
I1
s(I3
I2
I8
tp654
I1
s(I10
I8
I12
tp655
I1
s(I8
I11
I5
tp656
I1
s(I12
I9
I2
tp657
I1
s(I14
I13
I14
tp658
I1
s(I13
I8
I1
tp659
I1
s(I2
I6
I9
tp660
I1
s(I0
I14
I0
tp661
I1
s(I10
I2
I14
tp662
I1
s(I13
I6
I8
tp663
I1
s(I9
I7
I6
tp664
I1
s(I12
I4
I8
tp665
I1
s(I10
I0
I3
tp666
I1
s(I11
I1
I0
tp667
I1
s(I0
I1
I6
tp668
I1
s(I3
I9
I11
tp669
I1
s(I8
I5
I9
tp670
I1
s(I4
I4
I13
tp671
I1
s(I11
I3
I9
tp672
I1
s(I9
I4
I8
tp673
I1
s(I13
I14
I5
tp674
I1
s(I2
I12
I13
tp675
I1
s(I5
I6
I10
tp676
I1
s(I12
I0
I10
tp677
I1
s(I1
I6
I4
tp678
I1
s(I6
I4
I2
tp679
I1
s(I4
I8
I13
tp680
I1
s(I7
I5
I2
tp681
I1
s(I2
I1
I7
tp682
I1
s(I0
I5
I12
tp683
I1
s(I5
I9
I10
tp684
I1
s(I14
I8
I7
tp685
I1
s(I2
I10
I6
tp686
I1
s(I7
I8
I8
tp687
I1
s(I5
I12
I1
tp688
I1
s(I11
I4
I5
tp689
I1
s(I3
I12
I2
tp690
I1
s(I11
I11
I4
tp691
I1
s(I0
I11
I14
tp692
I1
s(I14
I3
I3
tp693
I1
s(I4
I11
I1
tp694
I1
s(I8
I0
I11
tp695
I1
s(I4
I0
I8
tp696
I1
s(I11
I6
I12
tp697
I1
s(I14
I12
I13
tp698
I1
s(I2
I9
I8
tp699
I1
s(I0
I13
I1
tp700
I1
s(I3
I5
I0
tp701
I1
s(I6
I2
I10
tp702
I1
s(I8
I1
I4
tp703
I1
s(I9
I0
I7
tp704
I1
s(I7
I13
I12
tp705
I1
s(I8
I14
I12
tp706
I1
s(I0
I8
I4
tp707
I1
s(I0
I0
I9
tp708
I1
s(I14
I4
I0
tp709
I1
s(I3
I6
I10
tp710
I1
s(I12
I3
I11
tp711
I1
s(I12
I5
I0
tp712
I1
s(I8
I4
I14
tp713
I1
s(I13
I4
I3
tp714
I1
s(I7
I3
I13
tp715
I1
s(I9
I5
I11
tp716
I1
s(I8
I1
I1
tp717
I1
s(I12
I7
I11
tp718
I1
s(I10
I14
I8
tp719
I1
s(I8
I6
I3
tp720
I1
s(I12
I12
I2
tp721
I1
s(I1
I10
I4
tp722
I1
s(I6
I8
I10
tp723
I1
s(I13
I2
I14
tp724
I1
s(I2
I0
I4
tp725
I1
s(I11
I9
I10
tp726
I1
s(I5
I5
I2
tp727
I1
s(I10
I12
I1
tp728
I1
s(I12
I13
I13
tp729
I1
s(I6
I14
I7
tp730
I1
s(I5
I8
I14
tp731
I1
s(I14
I9
I13
tp732
I1
s(I13
I12
I12
tp733
I1
s(I11
I8
I5
tp734
I1
s(I3
I0
I10
tp735
I1
s(I10
I10
I10
tp736
I1
s(I4
I10
I2
tp737
I1
s(I0
I7
I7
tp738
I1
s(I7
I3
I9
tp739
I1
s(I2
I8
I11
tp740
I1
s(I5
I2
I8
tp741
I1
s(I10
I4
I12
tp742
I1
s(I4
I1
I0
tp743
I1
s(I3
I10
I7
tp744
I1
s(I9
I14
I5
tp745
I1
s(I7
I4
I6
tp746
I1
s(I5
I0
I3
tp747
I1
s(I10
I9
I4
tp748
I1
s(I8
I13
I13
tp749
I1
s(I8
I3
I3
tp750
I1
s(I6
I3
I14
tp751
I1
s(I7
I6
I13
tp752
I1
s(I14
I7
I1
tp753
I1
s(I3
I7
I9
tp754
I1
s(I10
I3
I7
tp755
I1
s(I4
I12
I10
tp756
I1
s(I11
I1
I7
tp757
I1
s(I5
I13
I7
tp758
I1
s(I3
I9
I2
tp759
I1
s(I5
I7
I12
tp760
I1
s(I12
I6
I8
tp761
I1
s(I1
I0
I2
tp762
I1
s(I6
I6
I4
tp763
I1
s(I8
I5
I2
tp764
I1
s(I5
I11
I12
tp765
I1
s(I14
I10
I9
tp766
I1
s(I1
I6
I13
tp767
I1
s(I6
I4
I5
tp768
I1
s(I6
I9
I6
tp769
I1
s(I2
I1
I12
tp770
I1
s(I14
I8
I14
tp771
I1
s(I3
I10
I4
tp772
I1
s(I7
I8
I1
tp773
I1
s(I0
I9
I12
tp774
I1
s(I12
I1
I6
tp775
I1
s(I4
I6
I10
tp776
I1
s(I14
I14
I11
tp777
I1
s(I5
I8
I1
tp778
I1
s(I2
I11
I10
tp779
I1
s(I9
I3
I10
tp780
I1
s(I6
I1
I12
tp781
I1
s(I8
I10
I1
tp782
I1
s(I1
I14
I2
tp783
I1
s(I6
I12
I8
tp784
I1
s(I4
I0
I7
tp785
I1
s(I2
I9
I1
tp786
I1
s(I7
I5
I9
tp787
I1
s(I14
I0
I13
tp788
I1
s(I10
I8
I7
tp789
I1
s(I8
I12
I10
tp790
I1
s(I12
I9
I11
tp791
I1
s(I14
I13
I7
tp792
I1
s(I2
I7
I8
tp793
I1
s(I0
I14
I11
tp794
I1
s(I14
I6
I6
tp795
I1
s(I3
I4
I8
tp796
I1
s(I8
I2
I12
tp797
I1
s(I7
I10
I12
tp798
I1
s(I11
I14
I6
tp799
I1
s(I5
I14
I6
tp800
I1
s(I3
I6
I3
tp801
I1
s(I1
I1
I1
tp802
I1
s(I10
I0
I10
tp803
I1
s(I4
I13
I14
tp804
I1
s(I11
I2
I5
tp805
I1
s(I13
I4
I8
tp806
I1
s(I9
I5
I2
tp807
I1
s(I14
I5
I8
tp808
I1
s(I10
I7
I12
tp809
I1
s(I1
I7
I10
tp810
I1
s(I12
I12
I9
tp811
I1
s(I6
I8
I5
tp812
I1
s(I7
I2
I7
tp813
I1
s(I9
I11
I7
tp814
I1
s(I13
I14
I14
tp815
I1
s(I7
I9
I6
tp816
I1
s(I10
I12
I8
tp817
I1
s(I4
I8
I4
tp818
I1
s(I12
I13
I6
tp819
I1
s(I3
I13
I12
tp820
I1
s(I2
I10
I13
tp821
I1
s(I14
I2
I3
tp822
I1
s(I12
I2
I14
tp823
I1
s(I1
I4
I4
tp824
I1
s(I8
I9
I0
tp825
I1
s(I4
I7
I6
tp826
I1
s(I9
I8
I3
tp827
I1
s(I2
I8
I2
tp828
I1
s(I7
I10
I8
tp829
I1
s(I5
I2
I1
tp830
I1
s(I14
I3
I12
tp831
I1
s(I13
I13
I8
tp832
I1
s(I6
I13
I0
tp833
I1
s(I8
I0
I2
tp834
I1
s(I11
I6
I5
tp835
I1
s(I9
I14
I14
tp836
I1
s(I6
I13
I9
tp837
I1
s(I0
I13
I10
tp838
I1
s(I10
I14
I11
tp839
I1
s(I10
I9
I13
tp840
I1
s(I1
I12
I9
tp841
I1
s(I13
I7
I14
tp842
I1
s(I7
I6
I10
tp843
I1
s(I9
I0
I12
tp844
I1
s(I14
I1
I3
tp845
I1
s(I8
I14
I7
tp846
I1
s(I12
I4
I6
tp847
I1
s(I1
I2
I0
tp848
I1
s(I10
I3
I11
tp849
I1
s(I8
I3
I4
tp850
I1
s(I3
I11
I12
tp851
I1
s(I13
I5
I11
tp852
I1
s(I2
I5
I3
tp853
I1
s(I0
I1
I8
tp854
I1
s(I9
I6
I3
tp855
I1
s(I14
I4
I11
tp856
I1
s(I7
I12
I12
tp857
I1
s(I1
I0
I11
tp858
I1
s(I6
I6
I3
tp859
I1
s(I1
I11
I2
tp860
I1
s(I6
I11
I4
tp861
I1
s(I2
I3
I14
tp862
I1
s(I14
I10
I0
tp863
I1
s(I3
I8
I6
tp864
I1
s(I12
I7
I0
tp865
I1
s(I6
I4
I12
tp866
I1
s(I8
I6
I10
tp867
I1
s(I1
I10
I13
tp868
I1
s(I13
I2
I7
tp869
I1
s(I11
I2
I8
tp870
I1
s(I14
I8
I9
tp871
I1
s(I13
I13
I6
tp872
I1
s(I2
I13
I12
tp873
I1
s(I5
I5
I13
tp874
I1
s(I1
I5
I7
tp875
I1
s(I8
I7
I0
tp876
I1
s(I1
I8
I4
tp877
I1
s(I6
I14
I14
tp878
I1
s(I4
I6
I5
tp879
I1
s(I9
I9
I0
tp880
I1
s(I13
I11
I3
tp881
I1
s(I7
I11
I11
tp882
I1
s(I5
I3
I6
tp883
I1
s(I10
I7
I6
tp884
I1
s(I7
I5
I0
tp885
I1
s(I0
I12
I13
tp886
I1
s(I3
I2
I14
tp887
I1
s(I1
I13
I10
tp888
I1
s(I4
I1
I9
tp889
I1
s(I14
I13
I12
tp890
I1
s(I5
I0
I1
tp891
I1
s(I12
I11
I7
tp892
I1
s(I6
I3
I7
tp893
I1
s(I4
I3
I0
tp894
I1
s(I9
I12
I5
tp895
I1
s(I4
I3
I10
tp896
I1
s(I4
I9
I5
tp897
I1
s(I2
I2
I9
tp898
I1
s(I11
I1
I14
tp899
I1
s(I9
I5
I5
tp900
I1
s(I8
I5
I11
tp901
I1
s(I10
I14
I6
tp902
I1
s(I4
I14
I6
tp903
I1
s(I4
I4
I11
tp904
I1
s(I4
I6
I4
tp905
I1
s(I8
I3
I0
tp906
I1
s(I14
I11
I8
tp907
I1
s(I3
I11
I14
tp908
I1
s(I8
I7
I14
tp909
I1
s(I13
I1
I9
tp910
I1
s(I2
I1
I5
tp911
I1
s(I0
I5
I14
tp912
I1
s(I13
I12
I2
tp913
I1
s(I2
I10
I4
tp914
I1
s(I5
I4
I7
tp915
I1
s(I4
I10
I12
tp916
I1
s(I4
I13
I6
tp917
I1
s(I11
I4
I7
tp918
I1
s(I0
I11
I12
tp919
I1
s(I11
I14
I10
tp920
I1
s(I1
I14
I11
tp921
I1
s(I8
I0
I9
tp922
I1
s(I11
I6
I10
tp923
I1
s(I3
I14
I7
tp924
I1
s(I7
I4
I8
tp925
I1
s(I5
I1
I11
tp926
I1
s(I3
I5
I6
tp927
I1
s(I8
I12
I1
tp928
I1
s(I10
I5
I13
tp929
I1
s(I8
I1
I6
tp930
I1
s(I7
I10
I3
tp931
I1
s(I2
I7
I1
tp932
I1
s(I9
I0
I5
tp933
I1
s(I7
I13
I10
tp934
I1
s(I8
I14
I14
tp935
I1
s(I3
I14
I10
tp936
I1
s(I10
I3
I12
tp937
I1
s(I2
I5
I8
tp938
I1
s(I7
I1
I2
tp939
I1
s(I5
I13
I9
tp940
I1
s(I14
I4
I2
tp941
I1
s(I2
I14
I1
tp942
I1
s(I12
I5
I2
tp943
I1
s(I4
I13
I7
tp944
I1
s(I1
I11
I9
tp945
I1
s(I11
I0
I10
tp946
I1
s(I14
I10
I7
tp947
I1
s(I8
I10
I6
tp948
I1
s(I3
I6
I8
tp949
I1
s(I1
I7
I1
tp950
I1
s(I5
I12
I12
tp951
I1
s(I8
I6
I13
tp952
I1
s(I6
I8
I12
tp953
I1
s(I0
I4
I9
tp954
I1
s(I13
I13
I1
tp955
I1
s(I11
I9
I8
tp956
I1
s(I10
I7
I0
tp957
I1
s(I5
I5
I4
tp958
I1
s(I10
I12
I3
tp959
I1
s(I11
I5
I0
tp960
I1
s(I5
I8
I12
tp961
I1
s(I14
I9
I3
tp962
I1
s(I2
I11
I4
tp963
I1
s(I3
I0
I12
tp964
I1
s(I10
I10
I8
tp965
I1
s(I11
I7
I9
tp966
I1
s(I13
I10
I13
tp967
I1
s(I7
I5
I7
tp968
I1
s(I5
I2
I10
tp969
I1
s(I3
I2
I7
tp970
I1
s(I8
I11
I0
tp971
I1
s(I10
I4
I14
tp972
I1
s(I13
I8
I4
tp973
I1
s(I0
I14
I5
tp974
I1
s(I9
I1
I6
tp975
I1
s(I14
I1
I12
tp976
I1
s(I1
I3
I6
tp977
I1
s(I6
I3
I0
tp978
I1
s(I10
I2
I3
tp979
I1
s(I9
I12
I10
tp980
I1
s(I2
I4
I11
tp981
I1
s(I0
I8
I1
tp982
I1
s(I13
I5
I2
tp983
I1
s(I7
I0
I14
tp984
I1
s(I14
I5
I6
tp985
I1
s(I12
I6
I10
tp986
I1
s(I8
I5
I12
tp987
I1
s(I2
I3
I7
tp988
I1
s(I7
I14
I12
tp989
I1
s(I5
I6
I5
tp990
I1
s(I6
I4
I7
tp991
I1
s(I8
I7
I7
tp992
I1
s(I6
I9
I4
tp993
I1
s(I2
I1
I10
tp994
I1
s(I11
I2
I1
tp995
I1
s(I9
I10
I10
tp996
I1
s(I9
I1
I14
tp997
I1
s(I10
I13
I9
tp998
I1
s(I12
I14
I9
tp999
I1
s(I10
I6
I0
tp1000
I1
s(I7
I3
I5
tp1001
I1
s(I0
I6
I6
tp1002
I1
s(I5
I3
I13
tp1003
I1
s(I3
I3
I4
tp1004
I1
s(I8
I10
I3
tp1005
I1
s(I1
I14
I12
tp1006
I1
s(I6
I12
I10
tp1007
I1
s(I4
I0
I5
tp1008
I1
s(I13
I9
I7
tp1009
I1
s(I12
I11
I4
tp1010
I1
s(I9
I2
I7
tp1011
I1
s(I8
I12
I8
tp1012
I1
s(I9
I13
I9
tp1013
I1
s(I11
I12
I13
tp1014
I1
s(I9
I0
I2
tp1015
I1
s(I8
I2
I6
tp1016
I1
s(I11
I5
I10
tp1017
I1
s(I12
I11
I12
tp1018
I1
s(I6
I0
I8
tp1019
I1
s(I8
I2
I14
tp1020
I1
s(I9
I0
I11
tp1021
I1
s(I0
I0
I14
tp1022
I1
s(I3
I6
I1
tp1023
I1
s(I1
I1
I3
tp1024
I1
s(I8
I4
I11
tp1025
I1
s(I13
I4
I14
tp1026
I1
s(I2
I2
I0
tp1027
I1
s(I0
I2
I11
tp1028
I1
s(I5
I12
I3
tp1029
I1
s(I10
I14
I13
tp1030
I1
s(I8
I6
I4
tp1031
I1
s(I6
I8
I7
tp1032
I1
s(I7
I2
I5
tp1033
I1
s(I14
I11
I1
tp1034
I1
s(I2
I13
I2
tp1035
I1
s(I7
I9
I4
tp1036
I1
s(I3
I1
I10
tp1037
I1
s(I10
I12
I10
tp1038
I1
s(I4
I5
I13
tp1039
I1
s(I0
I5
I7
tp1040
I1
s(I14
I9
I8
tp1041
I1
s(I11
I8
I0
tp1042
I1
s(I5
I4
I12
tp1043
I1
s(I3
I0
I5
tp1044
I1
s(I1
I4
I2
tp1045
I1
s(I4
I7
I4
tp1046
I1
s(I0
I7
I10
tp1047
I1
s(I9
I8
I1
tp1048
I1
s(I13
I10
I6
tp1049
I1
s(I2
I8
I12
tp1050
I1
s(I5
I2
I3
tp1051
I1
s(I2
I14
I3
tp1052
I1
s(I8
I0
I0
tp1053
I1
s(I14
I12
I6
tp1054
I1
s(I2
I6
I5
tp1055
I1
s(I7
I4
I1
tp1056
I1
s(I14
I1
I5
tp1057
I1
s(I13
I7
I12
tp1058
I1
s(I7
I13
I1
tp1059
I1
s(I8
I14
I1
tp1060
I1
s(I1
I2
I2
tp1061
I1
s(I4
I13
I5
tp1062
I1
s(I0
I1
I10
tp1063
I1
s(I5
I13
I0
tp1064
I1
s(I3
I9
I7
tp1065
I1
s(I1
I0
I9
tp1066
I1
s(I6
I6
I1
tp1067
I1
s(I8
I5
I5
tp1068
I1
s(I1
I11
I0
tp1069
I1
s(I2
I3
I8
tp1070
I1
s(I11
I0
I3
tp1071
I1
s(I9
I4
I4
tp1072
I1
s(I14
I10
I14
tp1073
I1
s(I0
I8
I8
tp1074
I1
s(I12
I7
I6
tp1075
I1
s(I6
I4
I14
tp1076
I1
s(I13
I2
I1
tp1077
I1
s(I3
I10
I3
tp1078
I1
s(I12
I1
I9
tp1079
I1
s(I14
I0
I0
tp1080
I1
s(I12
I14
I0
tp1081
I1
s(I1
I8
I10
tp1082
I1
s(I4
I6
I7
tp1083
I1
s(I0
I6
I9
tp1084
I1
s(I5
I8
I5
tp1085
I1
s(I3
I12
I14
tp1086
I1
s(I0
I11
I2
tp1087
I1
s(I8
I10
I10
tp1088
I1
s(I6
I12
I13
tp1089
I1
s(I11
I7
I0
tp1090
I1
s(I7
I3
I0
tp1091
I1
s(I2
I9
I4
tp1092
I1
s(I5
I1
I5
tp1093
I1
s(I14
I0
I6
tp1094
I1
s(I3
I2
I12
tp1095
I1
s(I10
I8
I8
tp1096
I1
s(I6
I2
I6
tp1097
I1
s(I14
I13
I10
tp1098
I1
s(I7
I7
I11
tp1099
I1
s(I0
I14
I12
tp1100
I1
s(I14
I6
I3
tp1101
I1
s(I13
I9
I10
tp1102
I1
s(I8
I13
I0
tp1103
I1
s(I7
I14
I11
tp1104
I1
s(I1
I3
I13
tp1105
I1
s(I4
I3
I14
tp1106
I1
s(I9
I12
I3
tp1107
I1
s(I0
I0
I5
tp1108
I1
s(I5
I14
I1
tp1109
I1
s(I3
I6
I6
tp1110
I1
s(I7
I0
I13
tp1111
I1
s(I6
I1
I0
tp1112
I1
s(I8
I4
I2
tp1113
I1
s(I13
I14
I8
tp1114
I1
s(I7
I0
I7
tp1115
I1
s(I5
I12
I8
tp1116
I1
s(I5
I7
I1
tp1117
I1
s(I10
I14
I4
tp1118
I1
s(I4
I4
I9
tp1119
I1
s(I11
I3
I13
tp1120
I1
s(I0
I3
I1
tp1121
I1
s(I14
I11
I10
tp1122
I1
s(I7
I9
I3
tp1123
I1
s(I12
I0
I14
tp1124
I1
s(I1
I6
I0
tp1125
I1
s(I6
I9
I3
tp1126
I1
s(I12
I13
I1
tp1127
I1
s(I1
I9
I9
tp1128
I1
s(I13
I1
I11
tp1129
I1
s(I2
I1
I3
tp1130
I1
s(I0
I5
I8
tp1131
I1
s(I5
I9
I6
tp1132
I1
s(I3
I13
I9
tp1133
I1
s(I0
I10
I1
tp1134
I1
s(I5
I4
I5
tp1135
I1
s(I1
I4
I11
tp1136
I1
s(I7
I7
I0
tp1137
I1
s(I11
I4
I1
tp1138
I1
s(I14
I14
I0
tp1139
I1
s(I5
I2
I4
tp1140
I1
s(I10
I11
I9
tp1141
I1
s(I8
I0
I7
tp1142
I1
s(I3
I10
I1
tp1143
I1
s(I14
I1
I2
tp1144
I1
s(I12
I10
I6
tp1145
I1
s(I1
I12
I12
tp1146
I1
s(I8
I1
I8
tp1147
I1
s(I2
I7
I3
tp1148
I1
s(I9
I10
I2
tp1149
I1
s(I3
I7
I5
tp1150
I1
s(I3
I13
I10
tp1151
I1
s(I10
I3
I14
tp1152
I1
s(I4
I12
I6
tp1153
I1
s(I7
I1
I0
tp1154
I1
s(I5
I13
I11
tp1155
I1
s(I12
I5
I4
tp1156
I1
s(I10
I1
I5
tp1157
I1
s(I10
I4
I13
tp1158
I1
s(I11
I0
I12
tp1159
I1
s(I0
I2
I2
tp1160
I1
s(I1
I7
I7
tp1161
I1
s(I3
I13
I5
tp1162
I1
s(I1
I10
I8
tp1163
I1
s(I4
I6
I9
tp1164
I1
s(I9
I11
I12
tp1165
I1
s(I13
I13
I3
tp1166
I1
s(I2
I13
I11
tp1167
I1
s(I3
I1
I1
tp1168
I1
s(I1
I5
I8
tp1169
I1
s(I10
I12
I5
tp1170
I1
s(I1
I8
I3
tp1171
I1
s(I11
I5
I6
tp1172
I1
s(I2
I11
I6
tp1173
I1
s(I7
I11
I12
tp1174
I1
s(I5
I3
I3
tp1175
I1
s(I12
I2
I3
tp1176
I1
s(I10
I10
I14
tp1177
I1
s(I10
I7
I1
tp1178
I1
s(I4
I7
I13
tp1179
I1
s(I11
I7
I11
tp1180
I1
s(I6
I5
I4
tp1181
I1
s(I7
I5
I5
tp1182
I1
s(I3
I2
I5
tp1183
I1
s(I8
I11
I6
tp1184
I1
s(I4
I1
I12
tp1185
I1
s(I13
I8
I2
tp1186
I1
s(I9
I1
I8
tp1187
I1
s(I1
I3
I4
tp1188
I1
s(I10
I2
I9
tp1189
I1
s(I4
I3
I7
tp1190
I1
s(I9
I12
I8
tp1191
I1
s(I2
I4
I13
tp1192
I1
s(I9
I7
I1
tp1193
I1
s(I12
I4
I11
tp1194
I1
s(I6
I1
I9
tp1195
I1
s(I7
I0
I8
tp1196
I1
s(I12
I3
I3
tp1197
I1
s(I14
I5
I4
tp1198
I1
s(I12
I6
I12
tp1199
I1
s(I12
I2
I4
tp1200
I1
s(I8
I5
I14
tp1201
I1
s(I2
I3
I1
tp1202
I1
s(I13
I14
I2
tp1203
I1
s(I2
I12
I8
tp1204
I1
s(I4
I8
I8
tp1205
I1
s(I6
I9
I10
tp1206
I1
s(I5
I1
I7
tp1207
I1
s(I10
I4
I1
tp1208
I1
s(I14
I8
I2
tp1209
I1
s(I13
I0
I1
tp1210
I1
s(I0
I6
I0
tp1211
I1
s(I0
I11
I11
tp1212
I1
s(I14
I3
I0
tp1213
I1
s(I3
I3
I6
tp1214
I1
s(I4
I11
I2
tp1215
I1
s(I12
I8
I0
tp1216
I1
s(I1
I14
I14
tp1217
I1
s(I8
I0
I14
tp1218
I1
s(I13
I9
I1
tp1219
I1
s(I2
I9
I13
tp1220
I1
s(I5
I0
I13
tp1221
I1
s(I8
I12
I14
tp1222
I1
s(I1
I12
I5
tp1223
I1
s(I6
I2
I13
tp1224
I1
s(I4
I2
I4
tp1225
I1
s(I9
I13
I11
tp1226
I1
s(I2
I7
I12
tp1227
I1
s(I14
I6
I10
tp1228
I1
s(I5
I11
I7
tp1229
I1
s(I12
I11
I10
tp1230
I1
s(I6
I0
I10
tp1231
I1
s(I13
I6
I5
tp1232
I1
s(I0
I0
I12
tp1233
I1
s(I7
I12
I0
tp1234
I1
s(I8
I10
I7
tp1235
I1
s(I8
I4
I9
tp1236
I1
s(I13
I4
I12
tp1237
I1
s(I2
I2
I6
tp1238
I1
s(I0
I2
I13
tp1239
I1
s(I9
I5
I14
tp1240
I1
s(I6
I7
I0
tp1241
I1
s(I8
I6
I6
tp1242
I1
s(I1
I10
I1
tp1243
I1
s(I6
I8
I9
tp1244
I1
s(I4
I4
I0
tp1245
I1
s(I11
I3
I4
tp1246
I1
s(I5
I10
I8
tp1247
I1
s(I3
I1
I8
tp1248
I1
s(I12
I0
I5
tp1249
I1
s(I0
I5
I1
tp1250
I1
s(I14
I9
I14
tp1251
I1
s(I13
I12
I9
tp1252
I1
s(I7
I11
I7
tp1253
I1
s(I3
I0
I7
tp1254
I1
s(I4
I10
I1
tp1255
I1
s(I4
I7
I10
tp1256
I1
s(I3
I2
I2
tp1257
I1
s(I1
I13
I6
tp1258
I1
s(I6
I13
I12
tp1259
I1
s(I11
I6
I1
tp1260
I1
s(I9
I14
I10
tp1261
I1
s(I14
I12
I0
tp1262
I1
s(I11
I13
I8
tp1263
I1
s(I5
I0
I4
tp1264
I1
s(I10
I9
I9
tp1265
I1
s(I6
I3
I11
tp1266
I1
s(I8
I14
I3
tp1267
I1
s(I14
I2
I14
tp1268
I1
s(I8
I3
I8
tp1269
I1
s(I6
I10
I7
tp1270
I1
s(I2
I5
I7
tp1271
I1
s(I3
I9
I5
tp1272
I1
s(I8
I5
I7
tp1273
I1
s(I2
I3
I10
tp1274
I1
s(I11
I0
I5
tp1275
I1
s(I0
I8
I6
tp1276
I1
s(I5
I6
I0
tp1277
I1
s(I14
I2
I1
tp1278
I1
s(I14
I8
I13
tp1279
I1
s(I13
I13
I10
tp1280
I1
s(I0
I9
I9
tp1281
I1
s(I1
I5
I3
tp1282
I1
s(I4
I9
I0
tp1283
I1
s(I12
I14
I2
tp1284
I1
s(I10
I6
I5
tp1285
I1
s(I13
I0
I6
tp1286
I1
s(I0
I6
I11
tp1287
I1
s(I5
I8
I3
tp1288
I1
s(I0
I11
I0
tp1289
I1
s(I7
I1
I1
tp1290
I1
s(I3
I3
I1
tp1291
I1
s(I10
I10
I5
tp1292
I1
s(I4
I11
I11
tp1293
I1
s(I4
I0
I2
tp1294
I1
s(I11
I10
I9
tp1295
I1
s(I9
I2
I2
tp1296
I1
s(I1
I6
I5
tp1297
I1
s(I3
I6
I9
tp1298
I1
s(I10
I0
I9
tp1299
I1
s(I12
I9
I8
tp1300
I1
s(I11
I11
I2
tp1301
I1
s(I14
I13
I8
tp1302
I1
s(I0
I14
I14
tp1303
I1
s(I3
I4
I13
tp1304
I1
s(I8
I13
I2
tp1305
I1
s(I1
I3
I11
tp1306
I1
s(I9
I6
I10
tp1307
I1
s(I9
I12
I1
tp1308
I1
s(I13
I6
I14
tp1309
I1
s(I3
I3
I9
tp1310
I1
s(I0
I0
I3
tp1311
I1
s(I5
I14
I3
tp1312
I1
s(I2
I14
I13
tp1313
I1
s(I1
I1
I12
tp1314
I1
s(I6
I1
I6
tp1315
I1
s(I8
I4
I0
tp1316
I1
s(I2
I2
I13
tp1317
I1
s(I11
I1
I10
tp1318
I1
s(I5
I12
I14
tp1319
I1
s(I4
I11
I3
tp1320
I1
s(I12
I6
I7
tp1321
I1
s(I6
I7
I9
tp1322
I1
s(I12
I12
I12
tp1323
I1
s(I6
I8
I0
tp1324
I1
s(I7
I2
I8
tp1325
I1
s(I14
I11
I12
tp1326
I1
s(I12
I0
I12
tp1327
I1
s(I1
I6
I2
tp1328
I1
s(I8
I7
I10
tp1329
I1
s(I12
I13
I3
tp1330
I1
s(I1
I9
I11
tp1331
I1
s(I7
I7
I12
tp1332
I1
s(I5
I8
I13
tp1333
I1
s(I2
I1
I1
tp1334
I1
s(I0
I5
I10
tp1335
I1
s(I5
I9
I0
tp1336
I1
s(I13
I12
I6
tp1337
I1
s(I4
I5
I4
tp1338
I1
s(I14
I2
I6
tp1339
I1
s(I3
I0
I0
tp1340
I1
s(I1
I4
I9
tp1341
I1
s(I4
I7
I3
tp1342
I1
s(I11
I4
I3
tp1343
I1
s(I14
I14
I6
tp1344
I1
s(I11
I11
I10
tp1345
I1
s(I5
I2
I6
tp1346
I1
s(I10
I4
I2
tp1347
I1
s(I3
I13
I0
tp1348
I1
s(I14
I12
I11
tp1349
I1
s(I14
I1
I0
tp1350
I1
s(I1
I12
I10
tp1351
I1
s(I3
I11
I4
tp1352
I1
s(I8
I1
I10
tp1353
I1
s(I13
I7
I1
tp1354
I1
s(I9
I0
I9
tp1355
I1
s(I7
I13
I6
tp1356
I1
s(I8
I14
I10
tp1357
I1
s(I1
I2
I13
tp1358
I1
s(I10
I3
I8
tp1359
I1
s(I8
I3
I1
tp1360
I1
s(I6
I10
I14
tp1361
I1
s(I2
I5
I12
tp1362
I1
s(I11
I14
I11
tp1363
I1
s(I5
I13
I13
tp1364
I1
s(I12
I5
I6
tp1365
I1
s(I10
I1
I3
tp1366
I1
s(I1
I11
I5
tp1367
I1
s(I6
I3
I13
tp1368
I1
s(I13
I4
I5
tp1369
I1
s(I7
I3
I11
tp1370
I1
s(I0
I2
I4
tp1371
I1
s(I0
I8
I13
tp1372
I1
s(I12
I7
I13
tp1373
I1
s(I8
I6
I9
tp1374
I1
s(I13
I2
I4
tp1375
I1
s(I2
I0
I2
tp1376
I1
s(I0
I4
I13
tp1377
I1
s(I5
I10
I1
tp1378
I1
s(I3
I10
I14
tp1379
I1
s(I11
I9
I4
tp1380
I1
s(I5
I5
I8
tp1381
I1
s(I12
I1
I12
tp1382
I1
s(I10
I12
I7
tp1383
I1
s(I4
I9
I9
tp1384
I1
s(I3
I10
I11
tp1385
I1
s(I6
I14
I9
tp1386
I1
s(I11
I9
I7
tp1387
I1
s(I7
I11
I14
tp1388
I1
s(I5
I3
I1
tp1389
I1
s(I10
I10
I12
tp1390
I1
s(I11
I7
I5
tp1391
I1
s(I1
I6
I3
tp1392
I1
s(I3
I2
I11
tp1393
I1
s(I10
I8
I13
tp1394
I1
s(I12
I9
I1
tp1395
I1
s(I1
I13
I9
tp1396
I1
s(I11
I14
I9
tp1397
I1
s(I9
I14
I3
tp1398
I1
s(I4
I5
I8
tp1399
I1
s(I0
I14
I1
tp1400
I1
s(I9
I1
I10
tp1401
I1
s(I8
I13
I11
tp1402
I1
s(I8
I2
I2
tp1403
I1
s(I7
I6
I7
tp1404
I1
s(I5
I14
I12
tp1405
I1
s(I9
I10
I5
tp1406
I1
s(I9
I1
I4
tp1407
I1
s(I10
I0
I0
tp1408
I1
s(I14
I5
I2
tp1409
I1
s(I0
I10
I3
tp1410
I1
s(I12
I6
I14
tp1411
I1
s(I4
I14
I5
tp1412
I1
s(I4
I4
I14
tp1413
I1
s(I2
I3
I3
tp1414
I1
s(I5
I11
I6
tp1415
I1
s(I13
I14
I4
tp1416
I1
s(I2
I12
I10
tp1417
I1
s(I5
I6
I9
tp1418
I1
s(I12
I0
I11
tp1419
I1
s(I1
I6
I11
tp1420
I1
s(I4
I8
I14
tp1421
I1
s(I1
I9
I2
tp1422
I1
s(I6
I9
I8
tp1423
I1
s(I13
I1
I12
tp1424
I1
s(I13
I0
I5
tp1425
I1
s(I11
I8
I8
tp1426
I1
s(I7
I1
I14
tp1427
I1
s(I1
I4
I14
tp1428
I1
s(I11
I4
I4
tp1429
I1
s(I14
I14
I13
tp1430
I1
s(I13
I11
I14
tp1431
I1
s(I11
I11
I5
tp1432
I1
s(I0
I11
I9
tp1433
I1
s(I14
I3
I2
tp1434
I1
s(I12
I3
I7
tp1435
I1
s(I4
I11
I0
tp1436
I1
s(I12
I8
I6
tp1437
I1
s(I1
I14
I8
tp1438
I1
s(I4
I0
I9
tp1439
I1
s(I0
I13
I0
tp1440
I1
s(I0
I11
I7
tp1441
I1
s(I3
I5
I1
tp1442
I1
s(I1
I12
I3
tp1443
I1
s(I10
I5
I14
tp1444
I1
s(I4
I2
I6
tp1445
I1
s(I9
I13
I5
tp1446
I1
s(I14
I13
I1
tp1447
I1
s(I2
I7
I14
tp1448
I1
s(I11
I12
I9
tp1449
I1
s(I9
I0
I6
tp1450
I1
s(I7
I13
I13
tp1451
I1
s(I8
I14
I13
tp1452
I1
s(I12
I11
I8
tp1453
I1
s(I10
I3
I1
tp1454
I1
s(I8
I4
I12
tp1455
I1
s(I13
I6
I7
tp1456
I1
s(I7
I1
I13
tp1457
I1
s(I0
I0
I10
tp1458
I1
s(I14
I4
I1
tp1459
I1
s(I3
I6
I13
tp1460
I1
s(I1
I1
I7
tp1461
I1
s(I1
I11
I12
tp1462
I1
s(I2
I2
I4
tp1463
I1
s(I3
I14
I0
tp1464
I1
s(I9
I5
I8
tp1465
I1
s(I3
I8
I12
tp1466
I1
s(I12
I7
I10
tp1467
I1
s(I10
I14
I9
tp1468
I1
s(I8
I6
I0
tp1469
I1
s(I1
I10
I3
tp1470
I1
s(I13
I2
I13
tp1471
I1
s(I2
I0
I5
tp1472
I1
s(I7
I2
I1
tp1473
I1
s(I5
I10
I10
tp1474
I1
s(I7
I9
I8
tp1475
I1
s(I3
I1
I6
tp1476
I1
s(I1
I5
I13
tp1477
I1
s(I6
I5
I9
tp1478
I1
s(I0
I5
I3
tp1479
I1
s(I3
I13
I6
tp1480
I1
s(I7
I11
I1
tp1481
I1
s(I0
I10
I10
tp1482
I1
s(I8
I0
I5
tp1483
I1
s(I4
I10
I3
tp1484
I1
s(I11
I7
I12
tp1485
I1
s(I9
I8
I5
tp1486
I1
s(I0
I12
I7
tp1487
I1
s(I5
I11
I9
tp1488
I1
s(I8
I11
I13
tp1489
I1
s(I6
I13
I10
tp1490
I1
s(I9
I14
I4
tp1491
I1
s(I4
I6
I14
tp1492
I1
s(I14
I1
I9
tp1493
I1
s(I8
I13
I12
tp1494
I1
s(I7
I14
I5
tp1495
I1
s(I12
I10
I11
tp1496
I1
s(I10
I2
I6
tp1497
I1
s(I8
I3
I14
tp1498
I1
s(I6
I10
I5
tp1499
I1
s(I8
I3
I5
tp1500
I1
s(I4
I12
I9
tp1501
I1
s(I12
I6
I9
tp1502
I1
s(I1
I0
I13
tp1503
I1
s(I6
I6
I5
tp1504
I1
s(I4
I14
I12
tp1505
I1
s(I6
I11
I10
tp1506
I1
s(I13
I3
I10
tp1507
I1
s(I5
I11
I13
tp1508
I1
s(I14
I10
I10
tp1509
I1
s(I2
I12
I5
tp1510
I1
s(I7
I14
I9
tp1511
I1
s(I6
I4
I10
tp1512
I1
s(I6
I9
I1
tp1513
I1
s(I13
I13
I12
tp1514
I1
s(I12
I14
I4
tp1515
I1
s(I1
I8
I14
tp1516
I1
s(I13
I0
I4
tp1517
I1
s(I11
I4
I13
tp1518
I1
s(I0
I6
I5
tp1519
I1
s(I9
I9
I6
tp1520
I1
s(I13
I11
I5
tp1521
I1
s(I2
I11
I9
tp1522
I1
s(I0
I11
I6
tp1523
I1
s(I1
I14
I1
tp1524
I1
s(I6
I12
I9
tp1525
I1
s(I10
I2
I10
tp1526
I1
s(I2
I9
I0
tp1527
I1
s(I5
I1
I2
tp1528
I1
s(I12
I9
I10
tp1529
I1
s(I10
I5
I7
tp1530
I1
s(I14
I13
I6
tp1531
I1
s(I13
I8
I9
tp1532
I1
s(I0
I14
I8
tp1533
I1
s(I14
I6
I7
tp1534
I1
s(I12
I11
I1
tp1535
I1
s(I8
I2
I13
tp1536
I1
s(I13
I6
I0
tp1537
I1
s(I0
I0
I1
tp1538
I1
s(I2
I14
I11
tp1539
I1
s(I12
I5
I8
tp1540
I1
s(I1
I1
I14
tp1541
I1
s(I10
I0
I11
tp1542
I1
s(I11
I1
I8
tp1543
I1
s(I9
I5
I3
tp1544
I1
s(I11
I14
I13
tp1545
I1
s(I4
I4
I5
tp1546
I1
s(I13
I0
I8
tp1547
I1
s(I0
I3
I5
tp1548
I1
s(I7
I1
I11
tp1549
I1
s(I7
I9
I7
tp1550
I1
s(I3
I1
I13
tp1551
I1
s(I6
I5
I14
tp1552
I1
s(I6
I0
I7
tp1553
I1
s(I4
I8
I5
tp1554
I1
s(I9
I7
I13
tp1555
I1
s(I0
I5
I4
tp1556
I1
s(I5
I9
I2
tp1557
I1
s(I13
I12
I4
tp1558
I1
s(I2
I10
I14
tp1559
I1
s(I14
I2
I4
tp1560
I1
s(I13
I11
I1
tp1561
I1
s(I14
I14
I4
tp1562
I1
s(I2
I8
I3
tp1563
I1
s(I11
I11
I12
tp1564
I1
s(I5
I2
I0
tp1565
I1
s(I7
I1
I6
tp1566
I1
s(I10
I11
I5
tp1567
I1
s(I8
I11
I10
tp1568
I1
s(I12
I8
I13
tp1569
I1
s(I6
I13
I3
tp1570
I1
s(I3
I14
I1
tp1571
I1
s(I7
I4
I14
tp1572
I1
s(I0
I13
I9
tp1573
I1
s(I3
I5
I8
tp1574
I1
s(I12
I10
I2
tp1575
I1
s(I4
I2
I9
tp1576
I1
s(I8
I4
I5
tp1577
I1
s(I2
I14
I4
tp1578
I1
s(I3
I7
I1
tp1579
I1
s(I7
I13
I4
tp1580
I1
s(I10
I3
I10
tp1581
I1
s(I6
I10
I12
tp1582
I1
s(I2
I5
I2
tp1583
I1
s(I7
I1
I4
tp1584
I1
s(I9
I6
I2
tp1585
I1
s(I14
I4
I8
tp1586
I1
s(I1
I0
I10
tp1587
I1
s(I6
I11
I3
tp1588
I1
s(I5
I1
I13
tp1589
I1
s(I2
I3
I13
tp1590
I1
s(I11
I0
I0
tp1591
I1
s(I14
I10
I1
tp1592
I1
s(I3
I8
I5
tp1593
I1
s(I0
I8
I11
tp1594
I1
s(I12
I7
I3
tp1595
I1
s(I6
I4
I13
tp1596
I1
s(I8
I6
I11
tp1597
I1
s(I1
I10
I12
tp1598
I1
s(I0
I4
I3
tp1599
I1
s(I5
I10
I3
tp1600
I1
s(I13
I13
I7
tp1601
I1
s(I11
I9
I2
tp1602
I1
s(I0
I9
I4
tp1603
I1
s(I12
I1
I14
tp1604
I1
s(I8
I8
I0
tp1605
I1
s(I4
I14
I0
tp1606
I1
s(I11
I0
I14
tp1607
I1
s(I5
I3
I7
tp1608
I1
s(I4
I11
I14
tp1609
I1
s(I11
I7
I7
tp1610
I1
s(I13
I10
I11
tp1611
I1
s(I7
I5
I1
tp1612
I1
s(I0
I12
I14
tp1613
I1
s(I14
I0
I5
tp1614
I1
s(I3
I2
I9
tp1615
I1
s(I4
I1
I8
tp1616
I1
s(I7
I0
I5
tp1617
I1
s(I13
I8
I14
tp1618
I1
s(I2
I6
I8
tp1619
I1
s(I7
I11
I4
tp1620
I1
s(I9
I1
I12
tp1621
I1
s(I3
I4
I0
tp1622
I1
s(I1
I3
I0
tp1623
I1
s(I4
I3
I3
tp1624
I1
s(I3
I11
I8
tp1625
I1
s(I13
I6
I9
tp1626
I1
s(I2
I4
I1
tp1627
I1
s(I5
I14
I14
tp1628
I1
s(I14
I7
I9
tp1629
I1
s(I6
I1
I13
tp1630
I1
s(I14
I5
I0
tp1631
I1
s(I5
I7
I4
tp1632
I1
s(I12
I6
I0
tp1633
I1
s(I6
I7
I12
tp1634
I1
s(I8
I5
I10
tp1635
I1
s(I3
I11
I7
tp1636
I1
s(I9
I4
I9
tp1637
I1
s(I13
I14
I6
tp1638
I1
s(I2
I12
I12
tp1639
I1
s(I5
I6
I11
tp1640
I1
s(I12
I0
I9
tp1641
I1
s(I8
I7
I4
tp1642
I1
s(I1
I9
I4
tp1643
I1
s(I6
I9
I14
tp1644
I1
s(I2
I1
I4
tp1645
I1
s(I14
I8
I6
tp1646
I1
s(I9
I11
I10
tp1647
I1
s(I10
I13
I3
tp1648
I1
s(I4
I10
I13
tp1649
I1
s(I9
I8
I11
tp1650
I1
s(I2
I13
I9
tp1651
I1
s(I7
I10
I0
tp1652
I1
s(I12
I3
I5
tp1653
I1
s(I1
I14
I10
tp1654
I1
s(I14
I12
I12
tp1655
I1
s(I5
I9
I14
tp1656
I1
s(I5
I1
I8
tp1657
I1
s(I3
I5
I7
tp1658
I1
s(I8
I12
I2
tp1659
I1
s(I12
I10
I5
tp1660
I1
s(I1
I12
I1
tp1661
I1
s(I6
I2
I9
tp1662
I1
s(I8
I1
I5
tp1663
I1
s(I9
I13
I7
tp1664
I1
s(I6
I5
I0
tp1665
I1
s(I2
I7
I0
tp1666
I1
s(I11
I12
I11
tp1667
I1
s(I14
I6
I14
tp1668
I1
s(lp1669
I00
aI00
aI00
aI00
aI00
aI00
aI00
aI00
aI00
aI01
aI00
aI00
aI00
aI00
aI00
aI00
aI00
aI00
aI00
aI00
aI00
aI01
aI01
aI00
aI00
aI00
aI00
aI01
aI00
aI00
aI00
aI00
aI00
aI00
aI00
aI01
aI00
aI00
aI00
aI00
aI00
aI00
aI00
aI00
aI00
aI00
aI00
aI00
aI00
aI00
aI00
aI00
aI00
aI00
aI00
aI00
aI00
aI00
aI00
aI00
aI00
aI00
aI00
aI00
aI00
aI00
aI00
aI00
aI00
aI00
aI00
aI00
aI00
aI00
aI01
aI00
aI00
aI00
aI00
aI00
aI00
aI00
aI00
aI00
aI00
aI00
aI00
aI00
aI00
aI01
aI00
aI00
aI01
aI00
aI00
aI00
aI00
aI00
aI00
aI00
aI01
aI00
aI00
aI01
aI00
aI00
aI00
aI00
aI01
aI00
aI00
aI00
aI00
aI00
aI00
aI00
aI00
aI00
aI00
aI01
aI00
aI00
aI00
aI00
aI00
aI00
aI00
aI01
aI00
aI01
aI00
aI00
aI00
aI00
aI00
aI00
aI00
aI00
aI00
aI00
aI00
aI00
aI01
aI00
aI00
aI00
aI00
aI00
aI00
aI00
aI00
aI00
aI00
aI00
aI00
aI00
aI01
aI00
aI00
aI00
aI00
aI00
aI00
aI00
aI00
aI00
aI01
aI00
aI01
aI00
aI00
aI01
aI00
aI00
aI01
aI01
aI00
aI01
aI00
aI00
aI01
aI00
aI00
aI00
aI01
aI00
aI00
aI00
aI00
aI01
aI01
aI00
aI00
aI00
aI00
aI00
aI00
aI00
aI00
aI00
aI00
aI01
aI00
aI00
aI00
aI00
aI01
aI01
aI01
aI00
aI01
aI00
aI01
aI00
aI00
aI01
aI00
aI00
aI00
aI00
aI00
aI00
aI00
aI00
aI00
aI00
aI00
aI01
aI00
aI00
aI01
aI01
aI01
aI00
aI00
aI00
aI01
aI00
aI00
aI00
aI00
aI00
aI01
aI00
aI01
aI00
aI00
aI00
aI00
aI00
aI00
aI00
aI00
aI00
aI00
aI00
aI00
aI01
aI00
aI00
aI00
aI00
aI00
aI00
aI00
aI00
aI00
aI00
aI00
aI00
aI00
aI00
aI00
aI00
aI01
aI00
aI00
aI00
aI00
aI01
aI00
aI00
aI00
aI00
aI00
aI00
aI00
aI00
aI00
aI00
aI00
aI00
aI00
aI01
aI00
aI00
aI00
aI01
aI00
aI00
aI00
aI00
aI00
aI00
aI01
aI00
aI00
aI01
aI01
aI01
aI00
aI00
aI00
aI00
aI00
aI00
aI00
aI00
aI00
aI01
aI01
aI00
aI00
aI01
aI00
aI00
aI01
aI01
aI00
aI00
aI00
aI00
aI00
aI00
aI00
aI00
aI00
aI00
aI00
aI00
aI00
aI00
aI00
aI00
aI00
aI00
aI00
aI01
aI00
aI00
aI00
aI01
aI00
aI00
aI01
aI00
aI00
aI00
aI00
aI01
aI00
aI00
aI01
aI01
aI00
aI00
aI00
aI00
aI00
aI00
aI00
aI00
aI00
aI00
aI00
aI00
aI00
aI00
aI00
aI01
aI00
aI00
aI00
aI00
aI00
aI00
aI00
aI00
aI01
aI01
aI00
aI00
aI00
aI01
aI00
aI00
aI00
aI00
aI00
aI01
aI00
aI00
aI00
aI00
aI00
aI00
aI00
aI00
aI00
aI00
aI01
aI01
aI00
aI01
aI00
aI01
aI00
aI00
aI00
aI01
aI00
aI00
aI00
aI00
aI00
aI01
aI00
aI00
aI00
aI00
aI00
aI00
aI00
aI00
aI00
aI00
aI01
aI00
aI00
aI01
aI00
aI00
aI00
aI00
aI00
aI00
aI00
aI00
aI00
aI00
aI00
aI00
aI01
aI01
aI01
aI00
aI01
aI01
aI00
aI00
aI00
aI00
aI00
aI00
aI00
aI00
aI00
aI00
aI00
aI00
aI00
aI01
aI00
aI00
aI00
aI00
aI00
aI01
aI00
aI00
aI00
aI00
aI00
aI00
aI00
aI00
aI00
aI01
aI00
aI00
aI00
aI00
aI00
aI00
aI00
aI00
aI00
aI01
aI00
aI00
aI00
aI00
aI01
aI00
aI00
aI01
aI01
aI00
aI00
aI00
aI00
aI00
aI01
aI01
aI00
aI01
aI00
aI00
aI00
aI00
aI00
aI01
aI00
aI00
aI01
aI01
aI00
aI00
aI00
aI01
aI01
aI00
aI00
aI00
aI00
aI00
aI00
aI00
aI01
aI00
aI00
aI00
aI00
aI00
aI00
aI00
aI01
aI01
aI00
aI00
aI00
aI00
aI00
aI00
aI00
aI00
aI00
aI00
aI00
aI00
aI01
aI00
aI00
aI00
aI01
aI00
aI00
aI00
aI00
aI00
aI01
aI01
aI00
aI01
aI00
aI00
aI00
aI01
aI00
aI01
aI00
aI00
aI00
aI00
aI00
aI00
aI00
aI00
aI00
aI00
aI00
aI01
aI00
aI00
aI00
aI00
aI00
aI01
aI01
aI00
aI00
aI00
aI00
aI00
aI01
aI00
aI01
aI00
aI00
aI00
aI01
aI00
aI00
aI01
aI00
aI01
aI00
aI00
aI01
aI01
aI00
aI00
aI00
aI00
aI00
aI00
aI00
aI00
aI00
aI00
aI00
aI00
aI01
aI00
aI01
aI01
aI01
aI00
aI01
aI00
aI00
aI00
aI01
aI00
aI00
aI00
aI01
aI00
aI00
aI00
aI00
aI00
aI01
aI01
aI00
aI00
aI01
aI00
aI00
aI00
aI00
aI00
aI00
aI00
aI01
aI00
aI01
aI00
aI01
aI00
aI00
aI00
aI00
aI00
aI00
aI00
aI00
aI00
aI01
aI00
aI01
aI00
aI00
aI00
aI00
aI00
aI00
aI00
aI00
aI01
aI00
aI00
aI00
aI00
aI00
aI00
aI00
aI00
aI00
aI00
aI00
aI00
aI00
aI00
aI00
aI00
aI01
aI00
aI01
aI00
aI00
aI01
aI00
aI00
aI00
aI00
aI01
aI00
aI00
aI00
aI00
aI01
aI00
aI00
aI00
aI01
aI00
aI00
aI00
aI00
aI00
aI00
aI00
aI00
aI00
aI00
aI00
aI00
aI00
aI01
aI01
aI00
aI01
aI00
aI00
aI00
aI00
aI00
aI01
aI01
aI00
aI01
aI00
aI00
aI01
aI00
aI00
aI00
aI00
aI00
aI00
aI00
aI00
aI00
aI00
aI00
aI00
aI01
aI01
aI01
aI00
aI00
aI00
aI00
aI00
aI00
aI00
aI00
aI00
aI00
aI01
aI01
aI01
aI00
aI00
aI00
aI01
aI00
aI00
aI00
aI00
aI01
aI00
aI00
aI00
aI00
aI00
aI00
aI00
aI00
aI00
aI01
aI00
aI00
aI00
aI00
aI00
aI01
aI00
aI00
aI00
aI00
aI00
aI00
aI00
aI01
aI00
aI00
aI00
aI00
aI00
aI00
aI00
aI00
aI00
aI01
aI00
aI00
aI00
aI00
aI00
aI00
aI00
aI00
aI00
aI00
aI01
aI00
aI00
aI00
aI00
aI01
aI00
aI00
aI00
aI00
aI00
aI00
aI00
aI00
aI00
aI00
aI00
aI00
aI01
aI00
aI00
aI01
aI00
aI00
aI00
aI00
aI01
aI00
aI00
aI00
aI00
aI01
aI00
aI00
aI00
aI00
aI00
aI00
aI00
aI00
aI00
aI01
aI00
aI00
aI00
aI00
aI01
aI00
aI01
aI00
aI00
aI01
aI00
aI01
aI00
aI00
aI00
aI00
aI00
aI00
aI00
aI00
aI00
aI00
aI00
aI01
aI00
aI00
aI00
aI00
aI00
aI00
aI00
aI00
aI01
aI00
aI00
aI00
aI01
aI00
aI00
aI01
aI01
aI00
aI01
aI00
aI00
aI00
aI00
aI00
aI00
aI00
aI01
aI00
aI00
aI00
aI01
aI00
aI00
aI00
aI01
aI00
aI00
aI00
aI00
aI00
aI00
aI00
aI00
aI01
aI00
aI01
aI00
aI01
aI00
aI00
aI00
aI00
aI00
aI01
aI00
aI01
aI00
aI01
aI00
aI00
aI00
aI00
aI00
aI00
aI00
aI00
aI00
aI00
aI00
aI00
aI00
aI01
aI00
aI00
aI00
aI00
aI00
aI00
aI00
aI00
aI00
aI01
aI00
aI00
aI00
aI00
aI00
aI01
aI01
aI00
aI00
aI00
aI00
aI00
aI01
aI00
aI00
aI00
aI00
aI00
aI00
aI01
aI00
aI00
aI00
aI01
aI00
aI00
aI00
aI00
aI00
aI00
aI00
aI00
aI00
aI00
aI00
aI01
aI00
aI00
aI00
aI00
aI00
aI00
aI00
aI00
aI01
aI00
aI01
aI00
aI00
aI00
aI00
aI01
aI00
aI00
aI01
aI01
aI00
aI00
aI00
aI01
aI01
aI00
aI00
aI00
aI00
aI00
aI00
aI00
aI01
aI00
aI00
aI00
aI00
aI00
aI00
aI00
aI01
aI01
aI00
aI00
aI01
aI00
aI01
aI00
aI00
aI00
aI00
aI00
aI01
aI00
aI00
aI00
aI01
aI00
aI00
aI00
aI00
aI00
aI00
aI00
aI00
aI00
aI00
aI00
aI00
aI00
aI01
aI00
aI00
aI00
aI00
aI00
aI00
aI00
aI00
aI00
aI00
aI00
aI00
aI00
aI01
aI00
aI00
aI01
aI00
aI00
aI00
aI00
aI00
aI00
aI00
aI01
aI01
aI01
aI00
aI00
aI00
aI00
aI00
aI00
aI00
aI00
aI00
aI00
aI00
aI00
aI00
aI01
aI00
aI00
aI00
aI01
aI00
aI00
aI01
aI00
aI01
aI00
aI00
aI01
aI00
aI00
aI00
aI00
aI00
aI00
aI00
aI00
aI01
aI00
aI00
aI01
aI00
aI00
aI00
aI00
aI00
aI01
aI00
aI00
aI00
aI00
aI00
aI00
aI01
aI01
aI00
aI01
aI00
aI01
aI00
aI00
aI00
aI00
aI01
aI00
aI00
aI00
aI01
aI00
aI00
aI00
aI01
aI00
aI00
aI00
aI00
aI01
aI00
aI00
aI01
aI00
aI01
aI00
aI00
aI00
aI01
aI01
aI00
aI00
aI00
aI00
aI00
aI00
aI00
aI00
aI00
aI00
aI00
aI01
aI01
aI00
aI00
aI01
aI00
aI00
aI01
aI00
aI00
aI00
aI01
aI00
aI00
aI00
aI00
aI00
aI00
aI00
aI00
aI00
aI00
aI00
aI00
aI01
aI00
aI00
aI01
aI00
aI00
aI00
aI00
aI00
aI01
aI00
aI01
aI00
aI00
aI00
aI00
aI00
aI00
aI00
aI00
aI00
aI00
aI00
aI00
aI00
aI00
aI00
aI00
aI00
aI00
aI00
aI00
aI00
aI00
aI00
aI00
aI00
aI01
aI00
aI00
aI00
aI01
aI00
aI00
aI00
aI00
aI00
aI00
aI00
aI00
aI00
aI00
aI00
aI01
aI01
aI00
aI01
aI00
aI00
aI00
aI00
aI00
aI00
aI00
aI01
aI00
aI00
aI00
aI00
aI00
aI00
aI00
aI00
aI00
aI01
aI00
aI01
aI00
aI00
aI00
aI00
aI00
aI00
aI00
aI00
aI01
aI00
aI00
aI01
aI00
aI01
aI01
aI00
aI00
aI00
aI00
aI00
aI00
aI00
aI00
aI00
aI01
aI00
aI00
aI00
aI00
aI00
aI00
aI00
aI00
aI00
aI00
aI00
aI00
aI00
aI01
aI00
aI00
aI00
aI00
aI01
aI00
aI00
aI00
aI01
aI00
aI00
aI00
aI00
aI00
aI00
aI00
aI00
aI00
aI00
aI00
aI00
aI00
aI00
aI01
aI00
aI00
aI00
aI00
aI00
aI00
aI00
aI00
aI00
aI00
aI00
aI00
aI00
aI00
aI00
aI00
aI00
aI00
aI00
aI00
aI00
aI00
aI00
aI01
aI01
aI00
aI00
aI00
aI00
aI00
aI01
aI00
aI00
aI00
aI00
aI00
aI00
aI00
aI00
aI00
aI00
aI00
aI00
aI00
aI00
aI00
aI00
aI00
aI00
aI00
aI00
aI00
aI00
aI00
aI00
aI00
aI00
aI00
aI00
aI00
aI00
aI00
aI00
aI00
aI00
aI01
aI00
aI00
aI01
aI00
aI00
aI01
aI01
aI00
aI00
aI00
aI00
aI00
aI00
aI00
aI01
aI00
aI00
aI01
aI00
aI01
aI00
aI00
aI00
aI00
aI00
aI00
aI00
aI00
aI00
aI00
aI00
aI01
aI00
aI00
aI00
aI00
aI00
aI00
aI00
aI01
aI00
aI00
aI00
aI01
aI00
aI00
aI00
aI00
aI00
aI01
aI00
aI00
aI01
aI00
aI00
aI00
aI00
aI01
aI01
aI00
aI01
aI00
aI00
aI01
aI00
aI01
aI00
aI00
aI00
aI00
aI00
aI00
aI00
aI00
aI00
aI00
aI00
aI00
aI00
aI01
aI00
aI00
aI00
aI01
aI00
aI00
aI00
aI00
aI01
aI01
aI00
aI00
aI00
aI00
aI00
aI00
aI01
aI00
aI00
aI00
aI01
aI00
aI00
aI00
aI00
aI00
aI00
aI00
aI01
aI00
aI00
aI00
aI00
aI00
aI01
aI00
aI00
aI00
aI00
aI00
aI00
aI00
aI01
aI00
aI01
aI00
aI00
aI01
aI00
aI00
aI00
aI01
aI00
aI01
aI00
aI00
aI00
aI00
aI00
aI00
aI01
aI00
aI00
aI01
aI00
aI00
aI00
aI01
aI00
aI00
aI01
aI00
aI00
aI00
aI00
aI00
aI00
aI00
aI00
aI00
aI00
aI00
aI01
aI00
aI00
aI00
aI00
aI00
aI01
aI00
aI00
aI00
aI00
aI01
aI00
aI00
aI01
aI00
aI00
aI00
aI00
aI00
aI01
aI00
aI00
aI00
aI00
aI00
aI00
aI00
aI00
aI00
aI00
aI00
aI00
aS'100'
p1670
tp1671
.