((dp0
(I10
I3
I3
tp1
I1
s(I7
I1
I3
tp2
I1
s(I3
I6
I11
tp3
I1
s(I7
I12
I4
tp4
I1
s(I12
I5
I1
tp5
I1
s(I6
I6
I11
tp6
I1
s(I15
I13
I0
tp7
I1
s(I11
I0
I9
tp8
I1
s(I4
I15
I13
tp9
I1
s(I1
I10
I5
tp10
I1
s(I13
I2
I15
tp11
I1
s(I0
I4
I10
tp12
I1
s(I9
I11
I15
tp13
I1
s(I3
I1
I4
tp14
I1
s(I8
I8
I7
tp15
I1
s(I14
I9
I2
tp16
I1
s(I11
I8
I6
tp17
I1
s(I10
I10
I9
tp18
I1
s(I1
I15
I13
tp19
I1
s(I4
I7
I14
tp20
I1
s(I0
I7
I4
tp21
I1
s(I3
I15
I5
tp22
I1
s(I3
I2
I6
tp23
I1
s(I12
I9
I4
tp24
I1
s(I2
I6
I15
tp25
I1
s(I11
I13
I12
tp26
I1
s(I10
I2
I4
tp27
I1
s(I0
I15
I9
tp28
I1
s(I6
I10
I3
tp29
I1
s(I11
I1
I6
tp30
I1
s(I4
I14
I14
tp31
I1
s(I13
I3
I8
tp32
I1
s(I0
I8
I2
tp33
I1
s(I6
I4
I4
tp34
I1
s(I8
I7
I6
tp35
I1
s(I1
I8
I12
tp36
I1
s(I4
I6
I13
tp37
I1
s(I0
I6
I7
tp38
I1
s(I13
I11
I11
tp39
I1
s(I0
I11
I4
tp40
I1
s(I15
I11
I15
tp41
I1
s(I5
I1
I3
tp42
I1
s(I14
I0
I12
tp43
I1
s(I10
I8
I6
tp44
I1
s(I10
I5
I5
tp45
I1
s(I9
I13
I14
tp46
I1
s(I7
I7
I1
tp47
I1
s(I1
I1
I0
tp48
I1
s(I13
I4
I9
tp49
I1
s(I9
I5
I13
tp50
I1
s(I13
I15
I0
tp51
I1
s(I7
I15
I12
tp52
I1
s(I6
I7
I5
tp53
I1
s(I8
I6
I5
tp54
I1
s(I6
I8
I4
tp55
I1
s(I11
I3
I3
tp56
I1
s(I14
I11
I0
tp57
I1
s(I0
I5
I6
tp58
I1
s(I3
I13
I3
tp59
I1
s(I0
I10
I7
tp60
I1
s(I15
I8
I14
tp61
I1
s(I8
I9
I1
tp62
I1
s(I12
I15
I2
tp63
I1
s(I2
I8
I13
tp64
I1
s(I11
I11
I14
tp65
I1
s(I5
I2
I2
tp66
I1
s(I10
I4
I6
tp67
I1
s(I7
I4
I0
tp68
I1
s(I15
I0
I3
tp69
I1
s(I11
I15
I4
tp70
I1
s(I4
I12
I0
tp71
I1
s(I9
I6
I12
tp72
I1
s(I8
I5
I4
tp73
I1
s(I2
I3
I15
tp74
I1
s(I11
I0
I2
tp75
I1
s(I14
I10
I15
tp76
I1
s(I10
I15
I10
tp77
I1
s(I3
I13
I4
tp78
I1
s(I1
I10
I14
tp79
I1
s(I12
I1
I8
tp80
I1
s(I15
I9
I9
tp81
I1
s(I8
I8
I14
tp82
I1
s(I12
I14
I1
tp83
I1
s(I6
I14
I13
tp84
I1
s(I11
I8
I15
tp85
I1
s(I10
I10
I0
tp86
I1
s(I4
I11
I12
tp87
I1
s(I9
I15
I8
tp88
I1
s(I7
I5
I15
tp89
I1
s(I3
I2
I15
tp90
I1
s(I15
I10
I5
tp91
I1
s(I12
I9
I13
tp92
I1
s(I14
I13
I13
tp93
I1
s(I11
I12
I5
tp94
I1
s(I1
I3
I14
tp95
I1
s(I0
I0
I6
tp96
I1
s(I8
I15
I10
tp97
I1
s(I6
I1
I3
tp98
I1
s(I2
I2
I8
tp99
I1
s(I14
I5
I14
tp100
I1
s(I13
I10
I12
tp101
I1
s(I10
I14
I5
tp102
I1
s(I4
I4
I10
tp103
I1
s(I13
I3
I7
tp104
I1
s(I0
I3
I0
tp105
I1
s(I13
I14
I8
tp106
I1
s(I8
I7
I15
tp107
I1
s(I6
I9
I12
tp108
I1
s(I5
I9
I7
tp109
I1
s(I5
I4
I4
tp110
I1
s(I1
I4
I10
tp111
I1
s(I4
I10
I15
tp112
I1
s(I0
I11
I13
tp113
I1
s(I3
I3
I12
tp114
I1
s(I12
I8
I10
tp115
I1
s(I15
I6
I5
tp116
I1
s(I5
I1
I10
tp117
I1
s(I1
I12
I15
tp118
I1
s(I9
I13
I1
tp119
I1
s(I7
I13
I9
tp120
I1
s(I8
I14
I9
tp121
I1
s(I6
I0
I0
tp122
I1
s(I8
I3
I2
tp123
I1
s(I11
I14
I12
tp124
I1
s(I5
I13
I8
tp125
I1
s(I14
I4
I13
tp126
I1
s(I10
I1
I4
tp127
I1
s(I1
I11
I8
tp128
I1
s(I13
I4
I6
tp129
I1
s(I3
I8
I0
tp130
I1
s(I2
I0
I1
tp131
I1
s(I5
I10
I6
tp132
I1
s(I11
I9
I7
tp133
I1
s(I5
I5
I7
tp134
I1
s(I1
I5
I9
tp135
I1
s(I10
I6
I15
tp136
I1
s(I9
I9
I10
tp137
I1
s(I3
I0
I13
tp138
I1
s(I15
I8
I7
tp139
I1
s(I6
I12
I5
tp140
I1
s(I11
I7
I8
tp141
I1
s(I11
I10
I3
tp142
I1
s(I1
I13
I12
tp143
I1
s(I4
I1
I3
tp144
I1
s(I13
I8
I5
tp145
I1
s(I0
I14
I4
tp146
I1
s(I6
I3
I1
tp147
I1
s(I8
I2
I1
tp148
I1
s(I11
I15
I15
tp149
I1
s(I14
I7
I12
tp150
I1
s(I10
I0
I7
tp151
I1
s(I13
I5
I5
tp152
I1
s(I7
I0
I15
tp153
I1
s(I13
I15
I14
tp154
I1
s(I3
I9
I15
tp155
I1
s(I15
I12
I10
tp156
I1
s(I8
I5
I13
tp157
I1
s(I6
I11
I14
tp158
I1
s(I2
I3
I0
tp159
I1
s(I5
I11
I1
tp160
I1
s(I2
I12
I9
tp161
I1
s(I10
I15
I3
tp162
I1
s(I4
I8
I9
tp163
I1
s(I1
I9
I1
tp164
I1
s(I9
I10
I11
tp165
I1
s(I7
I8
I12
tp166
I1
s(I0
I9
I15
tp167
I1
s(I12
I1
I1
tp168
I1
s(I15
I9
I0
tp169
I1
s(I11
I4
I9
tp170
I1
s(I14
I14
I8
tp171
I1
s(I11
I11
I0
tp172
I1
s(I5
I3
I12
tp173
I1
s(I13
I9
I6
tp174
I1
s(I8
I12
I15
tp175
I1
s(I6
I2
I14
tp176
I1
s(I2
I7
I11
tp177
I1
s(I11
I12
I14
tp178
I1
s(I5
I15
I6
tp179
I1
s(I14
I6
I11
tp180
I1
s(I10
I3
I6
tp181
I1
s(I13
I6
I4
tp182
I1
s(I7
I1
I8
tp183
I1
s(I3
I6
I14
tp184
I1
s(I12
I5
I12
tp185
I1
s(I2
I2
I7
tp186
I1
s(I5
I12
I0
tp187
I1
s(I2
I15
I8
tp188
I1
s(I10
I14
I12
tp189
I1
s(I4
I15
I8
tp190
I1
s(I1
I10
I0
tp191
I1
s(I4
I4
I1
tp192
I1
s(I7
I2
I2
tp193
I1
s(I7
I9
I11
tp194
I1
s(I3
I1
I9
tp195
I1
s(I6
I5
I10
tp196
I1
s(I6
I14
I3
tp197
I1
s(I11
I5
I14
tp198
I1
s(I5
I4
I13
tp199
I1
s(I1
I4
I3
tp200
I1
s(I4
I10
I6
tp201
I1
s(I1
I15
I10
tp202
I1
s(I9
I8
I6
tp203
I1
s(I3
I15
I14
tp204
I1
s(I6
I13
I15
tp205
I1
s(I11
I6
I0
tp206
I1
s(I14
I1
I10
tp207
I1
s(I10
I9
I8
tp208
I1
s(I10
I2
I1
tp209
I1
s(I7
I6
I9
tp210
I1
s(I0
I15
I12
tp211
I1
s(I3
I7
I13
tp212
I1
s(I12
I4
I3
tp213
I1
s(I15
I2
I4
tp214
I1
s(I8
I3
I11
tp215
I1
s(I6
I10
I8
tp216
I1
s(I2
I5
I6
tp217
I1
s(I5
I13
I3
tp218
I1
s(I4
I14
I11
tp219
I1
s(I0
I8
I7
tp220
I1
s(I12
I7
I7
tp221
I1
s(I11
I2
I15
tp222
I1
s(I5
I5
I14
tp223
I1
s(I4
I9
I7
tp224
I1
s(I3
I10
I8
tp225
I1
s(I13
I0
I9
tp226
I1
s(I9
I9
I5
tp227
I1
s(I3
I12
I15
tp228
I1
s(I9
I3
I14
tp229
I1
s(I2
I9
I5
tp230
I1
s(I11
I10
I8
tp231
I1
s(I4
I5
I9
tp232
I1
s(I0
I14
I15
tp233
I1
s(I8
I13
I1
tp234
I1
s(I15
I3
I7
tp235
I1
s(I2
I14
I14
tp236
I1
s(I1
I1
I13
tp237
I1
s(I10
I0
I14
tp238
I1
s(I7
I0
I0
tp239
I1
s(I6
I7
I8
tp240
I1
s(I15
I12
I3
tp241
I1
s(I12
I12
I13
tp242
I1
s(I5
I4
I8
tp243
I1
s(I14
I11
I11
tp244
I1
s(I5
I6
I15
tp245
I1
s(I4
I8
I0
tp246
I1
s(I1
I9
I8
tp247
I1
s(I4
I5
I7
tp248
I1
s(I9
I10
I4
tp249
I1
s(I3
I13
I8
tp250
I1
s(I0
I10
I0
tp251
I1
s(I8
I9
I12
tp252
I1
s(I11
I4
I2
tp253
I1
s(I14
I14
I7
tp254
I1
s(I5
I2
I5
tp255
I1
s(I14
I3
I8
tp256
I1
s(I10
I11
I10
tp257
I1
s(I3
I14
I2
tp258
I1
s(I7
I4
I11
tp259
I1
s(I0
I13
I14
tp260
I1
s(I3
I5
I11
tp261
I1
s(I7
I1
I7
tp262
I1
s(I9
I6
I7
tp263
I1
s(I12
I5
I5
tp264
I1
s(I6
I6
I15
tp265
I1
s(I15
I13
I12
tp266
I1
s(I6
I11
I0
tp267
I1
s(I11
I0
I13
tp268
I1
s(I14
I10
I4
tp269
I1
s(I3
I15
I6
tp270
I1
s(I1
I10
I9
tp271
I1
s(I3
I10
I9
tp272
I1
s(I6
I14
I10
tp273
I1
s(I11
I5
I5
tp274
I1
s(I5
I8
I11
tp275
I1
s(I10
I10
I13
tp276
I1
s(I10
I7
I2
tp277
I1
s(I3
I15
I1
tp278
I1
s(I3
I2
I10
tp279
I1
s(I8
I11
I7
tp280
I1
s(I12
I9
I0
tp281
I1
s(I15
I1
I1
tp282
I1
s(I2
I6
I11
tp283
I1
s(I10
I9
I1
tp284
I1
s(I1
I3
I3
tp285
I1
s(I10
I2
I8
tp286
I1
s(I9
I12
I9
tp287
I1
s(I7
I6
I6
tp288
I1
s(I9
I7
I0
tp289
I1
s(I11
I1
I2
tp290
I1
s(I1
I0
I7
tp291
I1
s(I0
I3
I15
tp292
I1
s(I9
I4
I10
tp293
I1
s(I6
I4
I0
tp294
I1
s(I8
I7
I2
tp295
I1
s(I15
I5
I6
tp296
I1
s(I2
I1
I9
tp297
I1
s(I11
I2
I4
tp298
I1
s(I5
I9
I8
tp299
I1
s(I14
I2
I14
tp300
I1
s(I0
I6
I3
tp301
I1
s(I3
I12
I0
tp302
I1
s(I9
I3
I5
tp303
I1
s(I12
I3
I6
tp304
I1
s(I15
I11
I11
tp305
I1
s(I8
I0
I13
tp306
I1
s(I2
I9
I10
tp307
I1
s(I10
I8
I2
tp308
I1
s(I4
I2
I7
tp309
I1
s(I9
I13
I10
tp310
I1
s(I7
I7
I5
tp311
I1
s(I9
I0
I1
tp312
I1
s(I7
I13
I14
tp313
I1
s(I12
I11
I11
tp314
I1
s(I15
I3
I14
tp315
I1
s(I14
I4
I6
tp316
I1
s(I2
I14
I5
tp317
I1
s(I1
I1
I4
tp318
I1
s(I4
I13
I3
tp319
I1
s(I1
I11
I13
tp320
I1
s(I0
I2
I12
tp321
I1
s(I12
I12
I4
tp322
I1
s(I2
I0
I10
tp323
I1
s(I14
I11
I4
tp324
I1
s(I11
I9
I12
tp325
I1
s(I5
I5
I0
tp326
I1
s(I3
I13
I7
tp327
I1
s(I7
I11
I6
tp328
I1
s(I3
I0
I8
tp329
I1
s(I5
I2
I14
tp330
I1
s(I1
I13
I1
tp331
I1
s(I10
I4
I10
tp332
I1
s(I4
I1
I6
tp333
I1
s(I7
I4
I4
tp334
I1
s(I9
I1
I2
tp335
I1
s(I6
I3
I12
tp336
I1
s(I1
I2
I5
tp337
I1
s(I4
I12
I12
tp338
I1
s(I0
I1
I13
tp339
I1
s(I3
I9
I4
tp340
I1
s(I6
I6
I6
tp341
I1
s(I8
I5
I0
tp342
I1
s(I10
I15
I14
tp343
I1
s(I0
I4
I5
tp344
I1
s(I7
I8
I7
tp345
I1
s(I0
I9
I10
tp346
I1
s(I12
I1
I4
tp347
I1
s(I15
I9
I13
tp348
I1
s(I8
I8
I10
tp349
I1
s(I5
I8
I0
tp350
I1
s(I5
I3
I9
tp351
I1
s(I9
I2
I3
tp352
I1
s(I12
I9
I9
tp353
I1
s(I15
I1
I8
tp354
I1
s(I14
I6
I0
tp355
I1
s(I1
I3
I10
tp356
I1
s(I9
I7
I15
tp357
I1
s(I3
I6
I5
tp358
I1
s(I8
I15
I6
tp359
I1
s(I8
I4
I7
tp360
I1
s(I11
I1
I9
tp361
I1
s(I14
I5
I10
tp362
I1
s(I10
I14
I1
tp363
I1
s(I0
I3
I4
tp364
I1
s(I13
I14
I12
tp365
I1
s(I5
I9
I3
tp366
I1
s(I2
I10
I15
tp367
I1
s(I14
I2
I5
tp368
I1
s(I10
I13
I5
tp369
I1
s(I6
I9
I10
tp370
I1
s(I1
I15
I7
tp371
I1
s(I4
I7
I0
tp372
I1
s(I0
I7
I14
tp373
I1
s(I9
I8
I13
tp374
I1
s(I12
I8
I14
tp375
I1
s(I6
I13
I2
tp376
I1
s(I8
I0
I4
tp377
I1
s(I11
I6
I7
tp378
I1
s(I11
I13
I6
tp379
I1
s(I14
I1
I1
tp380
I1
s(I10
I9
I15
tp381
I1
s(I13
I7
I0
tp382
I1
s(I0
I15
I3
tp383
I1
s(I9
I0
I14
tp384
I1
s(I3
I7
I6
tp385
I1
s(I7
I13
I5
tp386
I1
s(I8
I14
I5
tp387
I1
s(I6
I0
I4
tp388
I1
s(I6
I10
I13
tp389
I1
s(I2
I5
I13
tp390
I1
s(I11
I14
I8
tp391
I1
s(I5
I13
I12
tp392
I1
s(I13
I12
I10
tp393
I1
s(I1
I11
I4
tp394
I1
s(I0
I2
I7
tp395
I1
s(I3
I8
I4
tp396
I1
s(I11
I2
I10
tp397
I1
s(I5
I10
I2
tp398
I1
s(I2
I13
I14
tp399
I1
s(I5
I5
I11
tp400
I1
s(I3
I11
I0
tp401
I1
s(I4
I9
I10
tp402
I1
s(I1
I8
I6
tp403
I1
s(I4
I6
I3
tp404
I1
s(I9
I9
I14
tp405
I1
s(I7
I11
I9
tp406
I1
s(I6
I12
I1
tp407
I1
s(I15
I7
I10
tp408
I1
s(I11
I7
I4
tp409
I1
s(I14
I15
I11
tp410
I1
s(I14
I0
I2
tp411
I1
s(I10
I8
I12
tp412
I1
s(I4
I1
I15
tp413
I1
s(I13
I8
I1
tp414
I1
s(I0
I14
I0
tp415
I1
s(I0
I11
I11
tp416
I1
s(I8
I13
I4
tp417
I1
s(I6
I3
I5
tp418
I1
s(I8
I2
I5
tp419
I1
s(I2
I4
I14
tp420
I1
s(I11
I15
I11
tp421
I1
s(I3
I15
I12
tp422
I1
s(I7
I0
I11
tp423
I1
s(I13
I15
I10
tp424
I1
s(I7
I15
I2
tp425
I1
s(I5
I11
I5
tp426
I1
s(I2
I12
I13
tp427
I1
s(I5
I6
I10
tp428
I1
s(I1
I6
I4
tp429
I1
s(I1
I9
I5
tp430
I1
s(I12
I14
I12
tp431
I1
s(I15
I4
I11
tp432
I1
s(I3
I14
I10
tp433
I1
s(I10
I11
I13
tp434
I1
s(I4
I0
I8
tp435
I1
s(I13
I9
I2
tp436
I1
s(I0
I13
I1
tp437
I1
s(I9
I2
I12
tp438
I1
s(I8
I1
I4
tp439
I1
s(I5
I15
I2
tp440
I1
s(I14
I6
I15
tp441
I1
s(I15
I13
I1
tp442
I1
s(I2
I15
I12
tp443
I1
s(I1
I7
I3
tp444
I1
s(I10
I14
I8
tp445
I1
s(I4
I15
I12
tp446
I1
s(I13
I2
I14
tp447
I1
s(I0
I4
I11
tp448
I1
s(I9
I11
I0
tp449
I1
s(I7
I9
I15
tp450
I1
s(I6
I5
I6
tp451
I1
s(I15
I14
I5
tp452
I1
s(I12
I13
I13
tp453
I1
s(I11
I5
I2
tp454
I1
s(I4
I7
I9
tp455
I1
s(I3
I15
I10
tp456
I1
s(I0
I12
I6
tp457
I1
s(I3
I2
I1
tp458
I1
s(I8
I11
I2
tp459
I1
s(I2
I6
I0
tp460
I1
s(I5
I0
I3
tp461
I1
s(I9
I12
I12
tp462
I1
s(I7
I6
I13
tp463
I1
s(I3
I7
I9
tp464
I1
s(I12
I4
I15
tp465
I1
s(I8
I3
I15
tp466
I1
s(I1
I0
I2
tp467
I1
s(I4
I14
I15
tp468
I1
s(I13
I3
I9
tp469
I1
s(I6
I4
I5
tp470
I1
s(I6
I9
I6
tp471
I1
s(I2
I1
I12
tp472
I1
s(I10
I13
I11
tp473
I1
s(I4
I9
I3
tp474
I1
s(I13
I0
I5
tp475
I1
s(I0
I6
I4
tp476
I1
s(I3
I12
I11
tp477
I1
s(I0
I11
I7
tp478
I1
s(I3
I3
I2
tp479
I1
s(I6
I12
I8
tp480
I1
s(I14
I0
I13
tp481
I1
s(I10
I8
I7
tp482
I1
s(I9
I13
I15
tp483
I1
s(I0
I14
I11
tp484
I1
s(I3
I4
I8
tp485
I1
s(I12
I11
I14
tp486
I1
s(I15
I3
I3
tp487
I1
s(I8
I2
I12
tp488
I1
s(I11
I14
I6
tp489
I1
s(I5
I14
I6
tp490
I1
s(I1
I1
I1
tp491
I1
s(I10
I0
I10
tp492
I1
s(I13
I4
I8
tp493
I1
s(I9
I5
I2
tp494
I1
s(I12
I12
I9
tp495
I1
s(I11
I3
I0
tp496
I1
s(I5
I10
I12
tp497
I1
s(I4
I8
I4
tp498
I1
s(I1
I9
I12
tp499
I1
s(I13
I1
I6
tp500
I1
s(I13
I12
I5
tp501
I1
s(I3
I0
I3
tp502
I1
s(I15
I8
I13
tp503
I1
s(I8
I9
I0
tp504
I1
s(I6
I15
I9
tp505
I1
s(I14
I3
I12
tp506
I1
s(I10
I4
I7
tp507
I1
s(I3
I5
I15
tp508
I1
s(I11
I15
I5
tp509
I1
s(I13
I5
I11
tp510
I1
s(I0
I1
I8
tp511
I1
s(I9
I6
I3
tp512
I1
s(I6
I6
I3
tp513
I1
s(I15
I13
I8
tp514
I1
s(I2
I3
I14
tp515
I1
s(I5
I11
I11
tp516
I1
s(I13
I2
I7
tp517
I1
s(I2
I13
I0
tp518
I1
s(I13
I13
I6
tp519
I1
s(I0
I9
I5
tp520
I1
s(I12
I1
I15
tp521
I1
s(I15
I9
I10
tp522
I1
s(I6
I14
I14
tp523
I1
s(I5
I8
I7
tp524
I1
s(I5
I3
I6
tp525
I1
s(I10
I10
I1
tp526
I1
s(I4
I11
I15
tp527
I1
s(I9
I15
I9
tp528
I1
s(I0
I12
I13
tp529
I1
s(I3
I2
I14
tp530
I1
s(I15
I1
I5
tp531
I1
s(I14
I13
I12
tp532
I1
s(I5
I0
I8
tp533
I1
s(I4
I3
I0
tp534
I1
s(I13
I6
I10
tp535
I1
s(I0
I0
I7
tp536
I1
s(I9
I7
I4
tp537
I1
s(I8
I15
I13
tp538
I1
s(I6
I1
I2
tp539
I1
s(I2
I2
I9
tp540
I1
s(I14
I5
I1
tp541
I1
s(I5
I7
I3
tp542
I1
s(I10
I14
I6
tp543
I1
s(I4
I4
I11
tp544
I1
s(I3
I11
I14
tp545
I1
s(I8
I7
I14
tp546
I1
s(I15
I5
I2
tp547
I1
s(I5
I9
I4
tp548
I1
s(I2
I10
I4
tp549
I1
s(I1
I4
I13
tp550
I1
s(I10
I13
I0
tp551
I1
s(I4
I10
I12
tp552
I1
s(I7
I10
I1
tp553
I1
s(I15
I11
I7
tp554
I1
s(I8
I0
I9
tp555
I1
s(I11
I6
I10
tp556
I1
s(I5
I1
I11
tp557
I1
s(I1
I12
I14
tp558
I1
s(I9
I13
I6
tp559
I1
s(I13
I7
I5
tp560
I1
s(I9
I0
I5
tp561
I1
s(I7
I13
I10
tp562
I1
s(I6
I0
I1
tp563
I1
s(I15
I3
I10
tp564
I1
s(I11
I14
I15
tp565
I1
s(I14
I4
I2
tp566
I1
s(I2
I14
I1
tp567
I1
s(I1
I11
I9
tp568
I1
s(I13
I4
I1
tp569
I1
s(I0
I2
I0
tp570
I1
s(I12
I7
I9
tp571
I1
s(I8
I6
I13
tp572
I1
s(I6
I8
I12
tp573
I1
s(I2
I0
I6
tp574
I1
s(I5
I10
I5
tp575
I1
s(I11
I9
I8
tp576
I1
s(I5
I5
I4
tp577
I1
s(I4
I9
I13
tp578
I1
s(I9
I9
I11
tp579
I1
s(I7
I11
I2
tp580
I1
s(I15
I8
I6
tp581
I1
s(I12
I15
I10
tp582
I1
s(I15
I7
I7
tp583
I1
s(I11
I7
I9
tp584
I1
s(I14
I15
I14
tp585
I1
s(I5
I2
I10
tp586
I1
s(I4
I1
I2
tp587
I1
s(I3
I11
I7
tp588
I1
s(I13
I8
I4
tp589
I1
s(I8
I13
I15
tp590
I1
s(I10
I0
I4
tp591
I1
s(I7
I0
I14
tp592
I1
s(I0
I1
I1
tp593
I1
s(I3
I9
I0
tp594
I1
s(I12
I6
I10
tp595
I1
s(I8
I5
I12
tp596
I1
s(I6
I11
I13
tp597
I1
s(I2
I12
I6
tp598
I1
s(I10
I15
I2
tp599
I1
s(I9
I10
I10
tp600
I1
s(I15
I9
I1
tp601
I1
s(I12
I14
I9
tp602
I1
s(I15
I4
I6
tp603
I1
s(I5
I3
I13
tp604
I1
s(I4
I0
I5
tp605
I1
s(I9
I15
I0
tp606
I1
s(I3
I14
I12
tp607
I1
s(I9
I2
I7
tp608
I1
s(I2
I7
I10
tp609
I1
s(I14
I6
I4
tp610
I1
s(I10
I3
I5
tp611
I1
s(I13
I6
I3
tp612
I1
s(I0
I0
I14
tp613
I1
s(I3
I6
I1
tp614
I1
s(I15
I13
I6
tp615
I1
s(I8
I4
I11
tp616
I1
s(I2
I15
I7
tp617
I1
s(I10
I14
I13
tp618
I1
s(I4
I15
I11
tp619
I1
s(I9
I11
I5
tp620
I1
s(I7
I9
I4
tp621
I1
s(I3
I1
I10
tp622
I1
s(I12
I0
I7
tp623
I1
s(I15
I14
I0
tp624
I1
s(I12
I13
I8
tp625
I1
s(I14
I9
I8
tp626
I1
s(I11
I8
I0
tp627
I1
s(I1
I4
I2
tp628
I1
s(I4
I10
I7
tp629
I1
s(I4
I7
I4
tp630
I1
s(I0
I7
I10
tp631
I1
s(I13
I10
I6
tp632
I1
s(I0
I12
I3
tp633
I1
s(I6
I13
I14
tp634
I1
s(I8
I0
I0
tp635
I1
s(I11
I6
I3
tp636
I1
s(I5
I0
I6
tp637
I1
s(I14
I1
I5
tp638
I1
s(I10
I2
I2
tp639
I1
s(I7
I6
I8
tp640
I1
s(I3
I7
I2
tp641
I1
s(I7
I13
I1
tp642
I1
s(I12
I4
I4
tp643
I1
s(I6
I10
I9
tp644
I1
s(I1
I0
I9
tp645
I1
s(I4
I14
I8
tp646
I1
s(I1
I11
I0
tp647
I1
s(I9
I4
I4
tp648
I1
s(I12
I7
I6
tp649
I1
s(I4
I14
I10
tp650
I1
s(I14
I8
I11
tp651
I1
s(I4
I9
I6
tp652
I1
s(I13
I0
I8
tp653
I1
s(I9
I9
I2
tp654
I1
s(I8
I10
I10
tp655
I1
s(I6
I12
I13
tp656
I1
s(I15
I7
I14
tp657
I1
s(I14
I15
I7
tp658
I1
s(I5
I1
I5
tp659
I1
s(I13
I8
I13
tp660
I1
s(I7
I7
I11
tp661
I1
s(I8
I13
I0
tp662
I1
s(I12
I11
I5
tp663
I1
s(I15
I3
I4
tp664
I1
s(I10
I0
I15
tp665
I1
s(I4
I13
I9
tp666
I1
s(I13
I15
I6
tp667
I1
s(I7
I15
I6
tp668
I1
s(I15
I12
I2
tp669
I1
s(I14
I11
I10
tp670
I1
s(I5
I6
I14
tp671
I1
s(I1
I6
I0
tp672
I1
s(I6
I9
I3
tp673
I1
s(I4
I8
I1
tp674
I1
s(I4
I5
I6
tp675
I1
s(I3
I13
I9
tp676
I1
s(I8
I9
I11
tp677
I1
s(I6
I15
I12
tp678
I1
s(I11
I4
I1
tp679
I1
s(I14
I14
I0
tp680
I1
s(I2
I8
I7
tp681
I1
s(I11
I11
I8
tp682
I1
s(I10
I4
I0
tp683
I1
s(I4
I0
I12
tp684
I1
s(I7
I4
I10
tp685
I1
s(I3
I5
I4
tp686
I1
s(I8
I12
I7
tp687
I1
s(I12
I10
I6
tp688
I1
s(I15
I0
I5
tp689
I1
s(I5
I15
I14
tp690
I1
s(I4
I12
I6
tp691
I1
s(I7
I12
I7
tp692
I1
s(I12
I5
I4
tp693
I1
s(I15
I13
I13
tp694
I1
s(I14
I2
I9
tp695
I1
s(I11
I0
I12
tp696
I1
s(I1
I7
I7
tp697
I1
s(I13
I13
I3
tp698
I1
s(I0
I9
I0
tp699
I1
s(I8
I8
I4
tp700
I1
s(I5
I8
I10
tp701
I1
s(I11
I8
I9
tp702
I1
s(I5
I3
I3
tp703
I1
s(I10
I10
I14
tp704
I1
s(I4
I7
I13
tp705
I1
s(I0
I7
I3
tp706
I1
s(I13
I10
I15
tp707
I1
s(I9
I3
I13
tp708
I1
s(I8
I11
I6
tp709
I1
s(I12
I9
I7
tp710
I1
s(I15
I1
I2
tp711
I1
s(I1
I3
I4
tp712
I1
s(I10
I2
I9
tp713
I1
s(I4
I3
I7
tp714
I1
s(I9
I12
I8
tp715
I1
s(I9
I7
I1
tp716
I1
s(I9
I3
I0
tp717
I1
s(I12
I3
I3
tp718
I1
s(I5
I7
I8
tp719
I1
s(I1
I0
I6
tp720
I1
s(I4
I14
I3
tp721
I1
s(I13
I3
I13
tp722
I1
s(I0
I3
I14
tp723
I1
s(I9
I4
I13
tp724
I1
s(I3
I11
I11
tp725
I1
s(I6
I4
I1
tp726
I1
s(I8
I7
I5
tp727
I1
s(I15
I5
I7
tp728
I1
s(I2
I1
I8
tp729
I1
s(I11
I2
I7
tp730
I1
s(I5
I9
I9
tp731
I1
s(I2
I10
I1
tp732
I1
s(I5
I4
I2
tp733
I1
s(I10
I13
I15
tp734
I1
s(I13
I0
I1
tp735
I1
s(I13
I11
I8
tp736
I1
s(I7
I10
I4
tp737
I1
s(I9
I3
I6
tp738
I1
s(I12
I3
I9
tp739
I1
s(I15
I11
I8
tp740
I1
s(I12
I8
I0
tp741
I1
s(I2
I9
I13
tp742
I1
s(I5
I1
I12
tp743
I1
s(I10
I8
I3
tp744
I1
s(I1
I12
I5
tp745
I1
s(I10
I5
I8
tp746
I1
s(I4
I2
I4
tp747
I1
s(I9
I13
I11
tp748
I1
s(I7
I7
I2
tp749
I1
s(I9
I0
I0
tp750
I1
s(I7
I13
I15
tp751
I1
s(I6
I0
I10
tp752
I1
s(I15
I3
I15
tp753
I1
s(I11
I14
I2
tp754
I1
s(I1
I1
I5
tp755
I1
s(I1
I11
I14
tp756
I1
s(I13
I4
I12
tp757
I1
s(I0
I2
I13
tp758
I1
s(I6
I7
I0
tp759
I1
s(I6
I8
I9
tp760
I1
s(I2
I0
I11
tp761
I1
s(I11
I3
I4
tp762
I1
s(I11
I9
I13
tp763
I1
s(I10
I12
I12
tp764
I1
s(I4
I5
I15
tp765
I1
s(I0
I5
I1
tp766
I1
s(I3
I13
I0
tp767
I1
s(I15
I7
I0
tp768
I1
s(I2
I8
I14
tp769
I1
s(I5
I2
I13
tp770
I1
s(I9
I14
I10
tp771
I1
s(I9
I1
I3
tp772
I1
s(I14
I7
I6
tp773
I1
s(I3
I9
I5
tp774
I1
s(I8
I5
I7
tp775
I1
s(I11
I0
I5
tp776
I1
s(I5
I6
I0
tp777
I1
s(I10
I15
I13
tp778
I1
s(I13
I2
I3
tp779
I1
s(I0
I4
I6
tp780
I1
s(I3
I10
I1
tp781
I1
s(I0
I9
I9
tp782
I1
s(I12
I1
I11
tp783
I1
s(I15
I9
I14
tp784
I1
s(I12
I14
I2
tp785
I1
s(I15
I4
I1
tp786
I1
s(I5
I3
I10
tp787
I1
s(I4
I11
I11
tp788
I1
s(I4
I0
I2
tp789
I1
s(I9
I15
I13
tp790
I1
s(I6
I2
I4
tp791
I1
s(I15
I1
I9
tp792
I1
s(I11
I12
I0
tp793
I1
s(I14
I6
I1
tp794
I1
s(I0
I0
I3
tp795
I1
s(I3
I6
I4
tp796
I1
s(I11
I1
I10
tp797
I1
s(I14
I5
I13
tp798
I1
s(I2
I15
I2
tp799
I1
s(I10
I14
I2
tp800
I1
s(I13
I3
I4
tp801
I1
s(I7
I2
I8
tp802
I1
s(I0
I3
I7
tp803
I1
s(I13
I14
I11
tp804
I1
s(I7
I9
I1
tp805
I1
s(I3
I1
I15
tp806
I1
s(I15
I14
I15
tp807
I1
s(I12
I13
I3
tp808
I1
s(I5
I9
I0
tp809
I1
s(I5
I4
I11
tp810
I1
s(I1
I4
I9
tp811
I1
s(I4
I10
I8
tp812
I1
s(I9
I8
I12
tp813
I1
s(I6
I13
I5
tp814
I1
s(I15
I6
I8
tp815
I1
s(I14
I12
I11
tp816
I1
s(I14
I1
I0
tp817
I1
s(I4
I2
I15
tp818
I1
s(I0
I15
I2
tp819
I1
s(I9
I0
I9
tp820
I1
s(I7
I13
I6
tp821
I1
s(I8
I14
I10
tp822
I1
s(I6
I10
I14
tp823
I1
s(I2
I5
I12
tp824
I1
s(I11
I14
I11
tp825
I1
s(I10
I1
I3
tp826
I1
s(I1
I11
I5
tp827
I1
s(I13
I4
I5
tp828
I1
s(I0
I2
I4
tp829
I1
s(I3
I8
I3
tp830
I1
s(I0
I8
I13
tp831
I1
s(I12
I7
I13
tp832
I1
s(I15
I15
I12
tp833
I1
s(I8
I6
I9
tp834
I1
s(I2
I0
I2
tp835
I1
s(I5
I10
I1
tp836
I1
s(I15
I5
I11
tp837
I1
s(I1
I8
I1
tp838
I1
s(I4
I6
I0
tp839
I1
s(I9
I9
I15
tp840
I1
s(I7
I11
I14
tp841
I1
s(I15
I8
I2
tp842
I1
s(I12
I15
I14
tp843
I1
s(I11
I7
I5
tp844
I1
s(I14
I15
I10
tp845
I1
s(I13
I8
I0
tp846
I1
s(I3
I4
I6
tp847
I1
s(I8
I2
I2
tp848
I1
s(I2
I4
I15
tp849
I1
s(I5
I14
I12
tp850
I1
s(I14
I7
I15
tp851
I1
s(I3
I13
I15
tp852
I1
s(I7
I0
I10
tp853
I1
s(I0
I1
I5
tp854
I1
s(I13
I15
I11
tp855
I1
s(I3
I9
I12
tp856
I1
s(I15
I12
I13
tp857
I1
s(I5
I6
I9
tp858
I1
s(I1
I6
I11
tp859
I1
s(I10
I15
I6
tp860
I1
s(I1
I9
I2
tp861
I1
s(I9
I10
I14
tp862
I1
s(I15
I9
I5
tp863
I1
s(I6
I15
I7
tp864
I1
s(I11
I4
I4
tp865
I1
s(I14
I14
I13
tp866
I1
s(I11
I11
I5
tp867
I1
s(I12
I2
I0
tp868
I1
s(I14
I3
I2
tp869
I1
s(I10
I11
I12
tp870
I1
s(I13
I11
I4
tp871
I1
s(I4
I11
I0
tp872
I1
s(I1
I14
I8
tp873
I1
s(I3
I14
I8
tp874
I1
s(I0
I13
I0
tp875
I1
s(I3
I5
I1
tp876
I1
s(I8
I12
I12
tp877
I1
s(I6
I2
I11
tp878
I1
s(I14
I13
I1
tp879
I1
s(I14
I6
I8
tp880
I1
s(I3
I6
I13
tp881
I1
s(I7
I12
I2
tp882
I1
s(I2
I2
I4
tp883
I1
s(I5
I12
I7
tp884
I1
s(I2
I15
I11
tp885
I1
s(I1
I7
I12
tp886
I1
s(I10
I14
I9
tp887
I1
s(I4
I15
I15
tp888
I1
s(I1
I10
I3
tp889
I1
s(I7
I2
I1
tp890
I1
s(I6
I5
I9
tp891
I1
s(I12
I13
I12
tp892
I1
s(I11
I5
I3
tp893
I1
s(I14
I9
I12
tp894
I1
s(I4
I10
I3
tp895
I1
s(I4
I7
I8
tp896
I1
s(I0
I7
I6
tp897
I1
s(I3
I15
I11
tp898
I1
s(I15
I10
I14
tp899
I1
s(I8
I11
I13
tp900
I1
s(I6
I13
I10
tp901
I1
s(I2
I6
I1
tp902
I1
s(I4
I6
I14
tp903
I1
s(I10
I9
I7
tp904
I1
s(I10
I2
I6
tp905
I1
s(I9
I12
I15
tp906
I1
s(I15
I2
I3
tp907
I1
s(I6
I10
I5
tp908
I1
s(I5
I13
I4
tp909
I1
s(I5
I7
I13
tp910
I1
s(I1
I0
I13
tp911
I1
s(I13
I3
I10
tp912
I1
s(I9
I4
I0
tp913
I1
s(I7
I14
I9
tp914
I1
s(I11
I2
I2
tp915
I1
s(I4
I9
I2
tp916
I1
s(I1
I8
I14
tp917
I1
s(I13
I0
I4
tp918
I1
s(I13
I11
I5
tp919
I1
s(I0
I11
I6
tp920
I1
s(I3
I3
I3
tp921
I1
s(I15
I11
I13
tp922
I1
s(I2
I9
I0
tp923
I1
s(I5
I1
I1
tp924
I1
s(I14
I0
I10
tp925
I1
s(I9
I13
I12
tp926
I1
s(I13
I8
I9
tp927
I1
s(I7
I7
I15
tp928
I1
s(I0
I14
I8
tp929
I1
s(I3
I4
I15
tp930
I1
s(I12
I11
I1
tp931
I1
s(I15
I3
I0
tp932
I1
s(I8
I2
I13
tp933
I1
s(I2
I4
I6
tp934
I1
s(I2
I14
I11
tp935
I1
s(I4
I13
I13
tp936
I1
s(I9
I5
I3
tp937
I1
s(I13
I15
I2
tp938
I1
s(I15
I12
I6
tp939
I1
s(I6
I8
I2
tp940
I1
s(I2
I0
I12
tp941
I1
s(I10
I12
I9
tp942
I1
s(I4
I8
I5
tp943
I1
s(I1
I9
I13
tp944
I1
s(I13
I1
I7
tp945
I1
s(I0
I5
I4
tp946
I1
s(I9
I10
I7
tp947
I1
s(I3
I13
I13
tp948
I1
s(I15
I8
I12
tp949
I1
s(I14
I14
I4
tp950
I1
s(I5
I2
I0
tp951
I1
s(I14
I3
I11
tp952
I1
s(I10
I4
I4
tp953
I1
s(I9
I14
I13
tp954
I1
s(I13
I9
I10
tp955
I1
s(I0
I13
I9
tp956
I1
s(I3
I5
I8
tp957
I1
s(I8
I1
I12
tp958
I1
s(I2
I7
I7
tp959
I1
s(I5
I15
I10
tp960
I1
s(I10
I3
I10
tp961
I1
s(I4
I12
I2
tp962
I1
s(I7
I1
I4
tp963
I1
s(I9
I6
I2
tp964
I1
s(I3
I3
I6
tp965
I1
s(I6
I11
I3
tp966
I1
s(I1
I10
I12
tp967
I1
s(I9
I11
I8
tp968
I1
s(I3
I10
I12
tp969
I1
s(I15
I9
I11
tp970
I1
s(I8
I8
I0
tp971
I1
s(I5
I8
I6
tp972
I1
s(I5
I3
I7
tp973
I1
s(I4
I11
I14
tp974
I1
s(I10
I7
I5
tp975
I1
s(I3
I15
I2
tp976
I1
s(I7
I5
I1
tp977
I1
s(I7
I14
I0
tp978
I1
s(I5
I0
I11
tp979
I1
s(I10
I2
I13
tp980
I1
s(I9
I12
I4
tp981
I1
s(I13
I6
I9
tp982
I1
s(I8
I15
I12
tp983
I1
s(I6
I1
I13
tp984
I1
s(I5
I7
I4
tp985
I1
s(I10
I14
I7
tp986
I1
s(I4
I14
I7
tp987
I1
s(I13
I3
I1
tp988
I1
s(I7
I2
I15
tp989
I1
s(I0
I3
I2
tp990
I1
s(I3
I11
I15
tp991
I1
s(I12
I0
I9
tp992
I1
s(I15
I14
I10
tp993
I1
s(I6
I9
I14
tp994
I1
s(I5
I9
I5
tp995
I1
s(I14
I8
I6
tp996
I1
s(I10
I13
I3
tp997
I1
s(I3
I10
I14
tp998
I1
s(I9
I8
I11
tp999
I1
s(I13
I11
I12
tp1000
I1
s(I7
I10
I0
tp1001
I1
s(I3
I3
I10
tp1002
I1
s(I8
I0
I10
tp1003
I1
s(I11
I6
I13
tp1004
I1
s(I14
I12
I12
tp1005
I1
s(I5
I1
I8
tp1006
I1
s(I10
I5
I12
tp1007
I1
s(I13
I7
I6
tp1008
I1
s(I8
I14
I15
tp1009
I1
s(I6
I0
I14
tp1010
I1
s(I15
I3
I11
tp1011
I1
s(I11
I14
I14
tp1012
I1
s(I10
I1
I6
tp1013
I1
s(I13
I0
I15
tp1014
I1
s(I9
I5
I10
tp1015
I1
s(I15
I15
I9
tp1016
I1
s(I8
I6
I2
tp1017
I1
s(I12
I12
I1
tp1018
I1
s(I14
I11
I7
tp1019
I1
s(I2
I13
I4
tp1020
I1
s(I5
I5
I5
tp1021
I1
s(I9
I9
I8
tp1022
I1
s(I13
I12
I13
tp1023
I1
s(I7
I11
I3
tp1024
I1
s(I0
I10
I12
tp1025
I1
s(I3
I0
I11
tp1026
I1
s(I15
I8
I5
tp1027
I1
s(I15
I7
I4
tp1028
I1
s(I10
I4
I15
tp1029
I1
s(I4
I1
I1
tp1030
I1
s(I9
I14
I6
tp1031
I1
s(I13
I8
I7
tp1032
I1
s(I7
I4
I7
tp1033
I1
s(I8
I13
I14
tp1034
I1
s(I6
I3
I15
tp1035
I1
s(I15
I0
I10
tp1036
I1
s(I2
I4
I8
tp1037
I1
s(I14
I7
I2
tp1038
I1
s(I4
I12
I9
tp1039
I1
s(I13
I5
I3
tp1040
I1
s(I7
I0
I13
tp1041
I1
s(I9
I6
I11
tp1042
I1
s(I3
I9
I1
tp1043
I1
s(I12
I6
I11
tp1044
I1
s(I8
I5
I3
tp1045
I1
s(I6
I11
I12
tp1046
I1
s(I2
I3
I6
tp1047
I1
s(I5
I11
I3
tp1048
I1
s(I14
I10
I8
tp1049
I1
s(I3
I15
I0
tp1050
I1
s(I1
I6
I14
tp1051
I1
s(I10
I15
I1
tp1052
I1
s(I4
I8
I11
tp1053
I1
s(I9
I10
I9
tp1054
I1
s(I3
I10
I5
tp1055
I1
s(I7
I8
I2
tp1056
I1
s(I0
I9
I13
tp1057
I1
s(I15
I9
I2
tp1058
I1
s(I15
I4
I5
tp1059
I1
s(I2
I11
I11
tp1060
I1
s(I5
I3
I14
tp1061
I1
s(I4
I0
I6
tp1062
I1
s(I3
I14
I15
tp1063
I1
s(I7
I5
I8
tp1064
I1
s(I9
I2
I6
tp1065
I1
s(I8
I12
I9
tp1066
I1
s(I14
I6
I5
tp1067
I1
s(I7
I1
I10
tp1068
I1
s(I0
I0
I15
tp1069
I1
s(I9
I7
I12
tp1070
I1
s(I3
I6
I0
tp1071
I1
s(I15
I13
I7
tp1072
I1
s(I8
I4
I4
tp1073
I1
s(I2
I15
I6
tp1074
I1
s(I1
I7
I9
tp1075
I1
s(I10
I14
I14
tp1076
I1
s(I4
I15
I10
tp1077
I1
s(I9
I11
I6
tp1078
I1
s(I3
I11
I6
tp1079
I1
s(I3
I1
I11
tp1080
I1
s(I6
I5
I12
tp1081
I1
s(I12
I13
I7
tp1082
I1
s(I11
I5
I8
tp1083
I1
s(I2
I10
I12
tp1084
I1
s(I3
I3
I11
tp1085
I1
s(I5
I4
I15
tp1086
I1
s(I4
I10
I4
tp1087
I1
s(I1
I15
I4
tp1088
I1
s(I0
I7
I13
tp1089
I1
s(I13
I10
I5
tp1090
I1
s(I7
I10
I9
tp1091
I1
s(I8
I11
I8
tp1092
I1
s(I6
I13
I1
tp1093
I1
s(I15
I6
I12
tp1094
I1
s(I11
I6
I2
tp1095
I1
s(I2
I6
I6
tp1096
I1
s(I11
I13
I11
tp1097
I1
s(I10
I9
I10
tp1098
I1
s(I4
I2
I11
tp1099
I1
s(I7
I6
I11
tp1100
I1
s(I9
I0
I13
tp1101
I1
s(I8
I14
I6
tp1102
I1
s(I15
I2
I6
tp1103
I1
s(I8
I3
I5
tp1104
I1
s(I6
I10
I10
tp1105
I1
s(I2
I5
I0
tp1106
I1
s(I14
I4
I10
tp1107
I1
s(I7
I3
I7
tp1108
I1
s(I3
I8
I7
tp1109
I1
s(I0
I8
I9
tp1110
I1
s(I6
I4
I15
tp1111
I1
s(I14
I8
I8
tp1112
I1
s(I11
I9
I0
tp1113
I1
s(I4
I9
I5
tp1114
I1
s(I1
I8
I5
tp1115
I1
s(I4
I6
I4
tp1116
I1
s(I0
I6
I14
tp1117
I1
s(I3
I12
I13
tp1118
I1
s(I7
I11
I10
tp1119
I1
s(I15
I7
I15
tp1120
I1
s(I11
I7
I1
tp1121
I1
s(I2
I9
I7
tp1122
I1
s(I11
I10
I10
tp1123
I1
s(I10
I8
I9
tp1124
I1
s(I4
I1
I10
tp1125
I1
s(I7
I7
I8
tp1126
I1
s(I0
I14
I13
tp1127
I1
s(I3
I4
I2
tp1128
I1
s(I8
I13
I7
tp1129
I1
s(I5
I14
I0
tp1130
I1
s(I4
I13
I8
tp1131
I1
s(I3
I9
I8
tp1132
I1
s(I6
I7
I14
tp1133
I1
s(I15
I12
I1
tp1134
I1
s(I11
I3
I10
tp1135
I1
s(I5
I6
I13
tp1136
I1
s(I1
I6
I7
tp1137
I1
s(I4
I5
I5
tp1138
I1
s(I0
I5
I15
tp1139
I1
s(I9
I10
I2
tp1140
I1
s(I3
I13
I10
tp1141
I1
s(I7
I8
I11
tp1142
I1
s(I6
I15
I3
tp1143
I1
s(I11
I4
I0
tp1144
I1
s(I14
I14
I1
tp1145
I1
s(I2
I8
I4
tp1146
I1
s(I11
I11
I9
tp1147
I1
s(I4
I0
I13
tp1148
I1
s(I3
I14
I4
tp1149
I1
s(I7
I4
I9
tp1150
I1
s(I3
I5
I5
tp1151
I1
s(I15
I0
I4
tp1152
I1
s(I10
I3
I13
tp1153
I1
s(I7
I1
I1
tp1154
I1
s(I12
I5
I3
tp1155
I1
s(I15
I13
I14
tp1156
I1
s(I1
I7
I0
tp1157
I1
s(I13
I2
I9
tp1158
I1
s(I13
I13
I0
tp1159
I1
s(I3
I1
I2
tp1160
I1
s(I8
I8
I5
tp1161
I1
s(I11
I5
I7
tp1162
I1
s(I5
I8
I13
tp1163
I1
s(I2
I11
I5
tp1164
I1
s(I6
I9
I8
tp1165
I1
s(I3
I15
I7
tp1166
I1
s(I2
I13
I12
tp1167
I1
s(I15
I10
I10
tp1168
I1
s(I12
I9
I6
tp1169
I1
s(I15
I1
I3
tp1170
I1
s(I5
I0
I14
tp1171
I1
s(I10
I2
I10
tp1172
I1
s(I4
I3
I6
tp1173
I1
s(I9
I12
I11
tp1174
I1
s(I4
I5
I14
tp1175
I1
s(I3
I7
I10
tp1176
I1
s(I6
I1
I8
tp1177
I1
s(I1
I0
I1
tp1178
I1
s(I4
I14
I0
tp1179
I1
s(I13
I3
I14
tp1180
I1
s(I15
I5
I8
tp1181
I1
s(I2
I1
I11
tp1182
I1
s(I11
I2
I6
tp1183
I1
s(I5
I9
I14
tp1184
I1
s(I2
I10
I2
tp1185
I1
s(I10
I13
I14
tp1186
I1
s(I4
I6
I15
tp1187
I1
s(I13
I11
I9
tp1188
I1
s(I3
I3
I7
tp1189
I1
s(I8
I10
I2
tp1190
I1
s(I15
I6
I2
tp1191
I1
s(I2
I9
I12
tp1192
I1
s(I1
I12
I4
tp1193
I1
s(I10
I5
I11
tp1194
I1
s(I9
I13
I8
tp1195
I1
s(I9
I0
I3
tp1196
I1
s(I9
I3
I4
tp1197
I1
s(I12
I11
I13
tp1198
I1
s(I2
I14
I7
tp1199
I1
s(I0
I2
I10
tp1200
I1
s(I3
I8
I9
tp1201
I1
s(I6
I7
I7
tp1202
I1
s(I12
I12
I6
tp1203
I1
s(I6
I8
I6
tp1204
I1
s(I14
I11
I2
tp1205
I1
s(I2
I13
I3
tp1206
I1
s(I13
I1
I3
tp1207
I1
s(I3
I13
I1
tp1208
I1
s(I7
I11
I4
tp1209
I1
s(I15
I7
I1
tp1210
I1
s(I2
I8
I15
tp1211
I1
s(I13
I9
I3
tp1212
I1
s(I14
I3
I15
tp1213
I1
s(I10
I4
I8
tp1214
I1
s(I4
I1
I4
tp1215
I1
s(I9
I1
I0
tp1216
I1
s(I3
I5
I12
tp1217
I1
s(I6
I3
I10
tp1218
I1
s(I15
I0
I13
tp1219
I1
s(I1
I2
I3
tp1220
I1
s(I4
I12
I14
tp1221
I1
s(I8
I5
I6
tp1222
I1
s(I11
I0
I4
tp1223
I1
s(I5
I11
I8
tp1224
I1
s(I2
I12
I0
tp1225
I1
s(I10
I15
I12
tp1226
I1
s(I13
I2
I2
tp1227
I1
s(I7
I8
I5
tp1228
I1
s(I12
I1
I10
tp1229
I1
s(I15
I9
I15
tp1230
I1
s(I8
I8
I12
tp1231
I1
s(I15
I4
I0
tp1232
I1
s(I2
I11
I14
tp1233
I1
s(I10
I10
I6
tp1234
I1
s(I1
I14
I6
tp1235
I1
s(I10
I7
I9
tp1236
I1
s(I4
I0
I3
tp1237
I1
s(I9
I15
I14
tp1238
I1
s(I7
I5
I13
tp1239
I1
s(I9
I2
I1
tp1240
I1
s(I12
I9
I15
tp1241
I1
s(I14
I13
I11
tp1242
I1
s(I1
I3
I12
tp1243
I1
s(I9
I12
I0
tp1244
I1
s(I0
I0
I4
tp1245
I1
s(I9
I7
I9
tp1246
I1
s(I8
I15
I8
tp1247
I1
s(I6
I1
I1
tp1248
I1
s(I8
I4
I1
tp1249
I1
s(I11
I1
I11
tp1250
I1
s(I5
I12
I9
tp1251
I1
s(I5
I7
I0
tp1252
I1
s(I10
I14
I3
tp1253
I1
s(I13
I3
I5
tp1254
I1
s(I0
I3
I6
tp1255
I1
s(I12
I0
I13
tp1256
I1
s(I8
I7
I13
tp1257
I1
s(I12
I13
I2
tp1258
I1
s(I2
I1
I0
tp1259
I1
s(I2
I10
I9
tp1260
I1
s(I14
I2
I7
tp1261
I1
s(I4
I7
I2
tp1262
I1
s(I7
I10
I12
tp1263
I1
s(I12
I3
I1
tp1264
I1
s(I15
I11
I0
tp1265
I1
s(I12
I8
I8
tp1266
I1
s(I14
I12
I8
tp1267
I1
s(I4
I2
I12
tp1268
I1
s(I9
I13
I3
tp1269
I1
s(I0
I15
I5
tp1270
I1
s(I3
I7
I4
tp1271
I1
s(I7
I13
I7
tp1272
I1
s(I8
I14
I11
tp1273
I1
s(I6
I0
I2
tp1274
I1
s(I11
I14
I10
tp1275
I1
s(I5
I13
I10
tp1276
I1
s(I10
I1
I2
tp1277
I1
s(I1
I11
I6
tp1278
I1
s(I13
I4
I4
tp1279
I1
s(I12
I7
I12
tp1280
I1
s(I8
I6
I14
tp1281
I1
s(I2
I0
I3
tp1282
I1
s(I11
I9
I5
tp1283
I1
s(I5
I5
I9
tp1284
I1
s(I1
I5
I11
tp1285
I1
s(I4
I9
I8
tp1286
I1
s(I1
I8
I0
tp1287
I1
s(I4
I6
I1
tp1288
I1
s(I7
I11
I15
tp1289
I1
s(I3
I0
I15
tp1290
I1
s(I6
I12
I7
tp1291
I1
s(I15
I7
I8
tp1292
I1
s(I14
I15
I9
tp1293
I1
s(I14
I0
I0
tp1294
I1
s(I1
I13
I14
tp1295
I1
s(I4
I1
I13
tp1296
I1
s(I9
I14
I2
tp1297
I1
s(I0
I14
I6
tp1298
I1
s(I8
I13
I10
tp1299
I1
s(I7
I14
I10
tp1300
I1
s(I8
I2
I3
tp1301
I1
s(I5
I14
I11
tp1302
I1
s(I10
I0
I1
tp1303
I1
s(I13
I5
I7
tp1304
I1
s(I7
I0
I9
tp1305
I1
s(I13
I15
I12
tp1306
I1
s(I15
I12
I12
tp1307
I1
s(I2
I3
I2
tp1308
I1
s(I5
I11
I7
tp1309
I1
s(I2
I12
I11
tp1310
I1
s(I5
I6
I8
tp1311
I1
s(I4
I8
I15
tp1312
I1
s(I1
I9
I3
tp1313
I1
s(I13
I1
I13
tp1314
I1
s(I7
I8
I14
tp1315
I1
s(I12
I14
I10
tp1316
I1
s(I6
I15
I6
tp1317
I1
s(I15
I4
I9
tp1318
I1
s(I11
I4
I11
tp1319
I1
s(I14
I14
I14
tp1320
I1
s(I11
I11
I2
tp1321
I1
s(I4
I11
I3
tp1322
I1
s(I9
I15
I5
tp1323
I1
s(I3
I14
I11
tp1324
I1
s(I9
I2
I10
tp1325
I1
s(I8
I12
I13
tp1326
I1
s(I6
I2
I12
tp1327
I1
s(I14
I13
I0
tp1328
I1
s(I2
I7
I13
tp1329
I1
s(I11
I12
I8
tp1330
I1
s(I5
I15
I4
tp1331
I1
s(I14
I6
I9
tp1332
I1
s(I10
I3
I0
tp1333
I1
s(I13
I6
I6
tp1334
I1
s(I3
I6
I12
tp1335
I1
s(I7
I12
I1
tp1336
I1
s(I8
I15
I1
tp1337
I1
s(I15
I13
I3
tp1338
I1
s(I8
I4
I8
tp1339
I1
s(I2
I2
I5
tp1340
I1
s(I5
I12
I6
tp1341
I1
s(I1
I7
I13
tp1342
I1
s(I10
I14
I10
tp1343
I1
s(I1
I10
I2
tp1344
I1
s(I7
I9
I9
tp1345
I1
s(I3
I1
I7
tp1346
I1
s(I6
I5
I8
tp1347
I1
s(I15
I14
I7
tp1348
I1
s(I12
I13
I11
tp1349
I1
s(I6
I14
I1
tp1350
I1
s(I11
I8
I3
tp1351
I1
s(I1
I4
I1
tp1352
I1
s(I1
I15
I8
tp1353
I1
s(I4
I7
I11
tp1354
I1
s(I0
I7
I9
tp1355
I1
s(I3
I15
I8
tp1356
I1
s(I0
I12
I0
tp1357
I1
s(I3
I2
I3
tp1358
I1
s(I14
I12
I3
tp1359
I1
s(I2
I6
I2
tp1360
I1
s(I11
I13
I15
tp1361
I1
s(I14
I1
I8
tp1362
I1
s(I10
I2
I7
tp1363
I1
s(I13
I7
I9
tp1364
I1
s(I3
I7
I15
tp1365
I1
s(I8
I14
I2
tp1366
I1
s(I6
I10
I6
tp1367
I1
s(I5
I13
I5
tp1368
I1
s(I4
I14
I13
tp1369
I1
s(I9
I4
I3
tp1370
I1
s(I7
I14
I8
tp1371
I1
s(I2
I1
I14
tp1372
I1
s(I11
I2
I13
tp1373
I1
s(I15
I6
I4
tp1374
I1
s(I1
I5
I2
tp1375
I1
s(I1
I8
I9
tp1376
I1
s(I9
I9
I7
tp1377
I1
s(I13
I11
I6
tp1378
I1
s(I9
I3
I12
tp1379
I1
s(I3
I3
I0
tp1380
I1
s(I8
I10
I15
tp1381
I1
s(I14
I15
I2
tp1382
I1
s(I2
I9
I3
tp1383
I1
s(I11
I10
I14
tp1384
I1
s(I5
I1
I6
tp1385
I1
s(I14
I0
I11
tp1386
I1
s(I10
I8
I5
tp1387
I1
s(I9
I13
I13
tp1388
I1
s(I7
I7
I12
tp1389
I1
s(I12
I11
I0
tp1390
I1
s(I15
I3
I1
tp1391
I1
s(I8
I2
I10
tp1392
I1
s(I2
I14
I12
tp1393
I1
s(I1
I1
I15
tp1394
I1
s(I10
I0
I8
tp1395
I1
s(I11
I13
I14
tp1396
I1
s(I13
I4
I10
tp1397
I1
s(I7
I0
I2
tp1398
I1
s(I9
I5
I0
tp1399
I1
s(I13
I15
I3
tp1400
I1
s(I12
I6
I6
tp1401
I1
s(I6
I7
I10
tp1402
I1
s(I2
I0
I13
tp1403
I1
s(I15
I5
I1
tp1404
I1
s(I13
I1
I4
tp1405
I1
s(I0
I5
I11
tp1406
I1
s(I3
I13
I14
tp1407
I1
s(I3
I0
I1
tp1408
I1
s(I6
I15
I15
tp1409
I1
s(I11
I11
I13
tp1410
I1
s(I10
I11
I4
tp1411
I1
s(I10
I4
I5
tp1412
I1
s(I8
I12
I4
tp1413
I1
s(I12
I10
I3
tp1414
I1
s(I15
I0
I0
tp1415
I1
s(I8
I1
I11
tp1416
I1
s(I2
I7
I6
tp1417
I1
s(I1
I2
I14
tp1418
I1
s(I13
I5
I9
tp1419
I1
s(I7
I1
I5
tp1420
I1
s(I9
I6
I1
tp1421
I1
s(I7
I12
I10
tp1422
I1
s(I12
I5
I7
tp1423
I1
s(I15
I13
I10
tp1424
I1
s(I2
I3
I12
tp1425
I1
s(I11
I0
I15
tp1426
I1
s(I13
I2
I5
tp1427
I1
s(I13
I13
I4
tp1428
I1
s(I0
I9
I3
tp1429
I1
s(I8
I8
I1
tp1430
I1
s(I6
I14
I8
tp1431
I1
s(I5
I8
I9
tp1432
I1
s(I10
I7
I4
tp1433
I1
s(I3
I15
I3
tp1434
I1
s(I0
I12
I15
tp1435
I1
s(I15
I10
I6
tp1436
I1
s(I8
I11
I5
tp1437
I1
s(I15
I1
I7
tp1438
I1
s(I14
I13
I14
tp1439
I1
s(I2
I6
I9
tp1440
I1
s(I5
I0
I10
tp1441
I1
s(I1
I3
I1
tp1442
I1
s(I4
I3
I2
tp1443
I1
s(I9
I12
I7
tp1444
I1
s(I9
I7
I6
tp1445
I1
s(I8
I15
I15
tp1446
I1
s(I12
I4
I8
tp1447
I1
s(I6
I1
I12
tp1448
I1
s(I15
I2
I11
tp1449
I1
s(I2
I2
I11
tp1450
I1
s(I11
I1
I0
tp1451
I1
s(I4
I14
I4
tp1452
I1
s(I13
I3
I2
tp1453
I1
s(I0
I3
I13
tp1454
I1
s(I3
I11
I12
tp1455
I1
s(I12
I0
I10
tp1456
I1
s(I6
I4
I2
tp1457
I1
s(I6
I9
I9
tp1458
I1
s(I5
I9
I10
tp1459
I1
s(I2
I10
I6
tp1460
I1
s(I5
I4
I1
tp1461
I1
s(I1
I4
I15
tp1462
I1
s(I9
I8
I10
tp1463
I1
s(I3
I12
I2
tp1464
I1
s(I9
I3
I3
tp1465
I1
s(I12
I3
I4
tp1466
I1
s(I15
I11
I5
tp1467
I1
s(I12
I8
I5
tp1468
I1
s(I15
I6
I6
tp1469
I1
s(I2
I9
I8
tp1470
I1
s(I10
I5
I15
tp1471
I1
s(I4
I2
I1
tp1472
I1
s(I9
I13
I4
tp1473
I1
s(I9
I0
I7
tp1474
I1
s(I7
I13
I12
tp1475
I1
s(I0
I8
I4
tp1476
I1
s(I15
I3
I8
tp1477
I1
s(I14
I4
I0
tp1478
I1
s(I1
I11
I11
tp1479
I1
s(I13
I4
I3
tp1480
I1
s(I0
I2
I14
tp1481
I1
s(I12
I7
I11
tp1482
I1
s(I8
I6
I3
tp1483
I1
s(I12
I12
I2
tp1484
I1
s(I2
I13
I7
tp1485
I1
s(I5
I5
I2
tp1486
I1
s(I1
I5
I12
tp1487
I1
s(I10
I12
I1
tp1488
I1
s(I13
I12
I12
tp1489
I1
s(I12
I2
I7
tp1490
I1
s(I14
I15
I12
tp1491
I1
s(I2
I8
I11
tp1492
I1
s(I5
I2
I8
tp1493
I1
s(I10
I4
I12
tp1494
I1
s(I4
I1
I0
tp1495
I1
s(I3
I10
I7
tp1496
I1
s(I9
I14
I5
tp1497
I1
s(I13
I8
I6
tp1498
I1
s(I13
I1
I10
tp1499
I1
s(I11
I15
I2
tp1500
I1
s(I1
I2
I7
tp1501
I1
s(I0
I1
I15
tp1502
I1
s(I12
I6
I8
tp1503
I1
s(I6
I6
I4
tp1504
I1
s(I6
I11
I11
tp1505
I1
s(I14
I10
I9
tp1506
I1
s(I10
I6
I3
tp1507
I1
s(I3
I10
I4
tp1508
I1
s(I7
I8
I1
tp1509
I1
s(I15
I4
I4
tp1510
I1
s(I11
I4
I14
tp1511
I1
s(I5
I3
I15
tp1512
I1
s(I4
I11
I6
tp1513
I1
s(I1
I14
I2
tp1514
I1
s(I10
I7
I13
tp1515
I1
s(I13
I9
I5
tp1516
I1
s(I9
I3
I11
tp1517
I1
s(I11
I12
I3
tp1518
I1
s(I1
I3
I8
tp1519
I1
s(I0
I0
I0
tp1520
I1
s(I9
I7
I13
tp1521
I1
s(I8
I15
I4
tp1522
I1
s(I12
I5
I9
tp1523
I1
s(I6
I1
I5
tp1524
I1
s(I8
I4
I5
tp1525
I1
s(I1
I14
I1
tp1526
I1
s(I5
I12
I13
tp1527
I1
s(I2
I15
I5
tp1528
I1
s(I10
I14
I15
tp1529
I1
s(I9
I11
I7
tp1530
I1
s(I13
I14
I14
tp1531
I1
s(I12
I0
I1
tp1532
I1
s(I6
I5
I15
tp1533
I1
s(I15
I14
I2
tp1534
I1
s(I8
I7
I9
tp1535
I1
s(I11
I5
I9
tp1536
I1
s(I14
I9
I10
tp1537
I1
s(I1
I4
I4
tp1538
I1
s(I4
I10
I5
tp1539
I1
s(I4
I7
I6
tp1540
I1
s(I12
I8
I12
tp1541
I1
s(I15
I6
I15
tp1542
I1
s(I11
I6
I5
tp1543
I1
s(I2
I6
I7
tp1544
I1
s(I11
I13
I4
tp1545
I1
s(I1
I12
I9
tp1546
I1
s(I7
I13
I3
tp1547
I1
s(I8
I14
I7
tp1548
I1
s(I12
I4
I6
tp1549
I1
s(I1
I11
I2
tp1550
I1
s(I7
I3
I4
tp1551
I1
s(I9
I4
I6
tp1552
I1
s(I3
I8
I6
tp1553
I1
s(I12
I7
I0
tp1554
I1
s(I8
I6
I10
tp1555
I1
s(I11
I9
I1
tp1556
I1
s(I1
I5
I7
tp1557
I1
s(I4
I9
I4
tp1558
I1
s(I0
I6
I15
tp1559
I1
s(I9
I9
I0
tp1560
I1
s(I13
I11
I3
tp1561
I1
s(I8
I10
I8
tp1562
I1
s(I12
I15
I13
tp1563
I1
s(I15
I7
I12
tp1564
I1
s(I2
I9
I6
tp1565
I1
s(I11
I10
I5
tp1566
I1
s(I1
I13
I10
tp1567
I1
s(I7
I7
I9
tp1568
I1
s(I3
I4
I1
tp1569
I1
s(I8
I13
I6
tp1570
I1
s(I12
I11
I7
tp1571
I1
s(I6
I3
I7
tp1572
I1
s(I8
I2
I7
tp1573
I1
s(I2
I4
I0
tp1574
I1
s(I5
I14
I15
tp1575
I1
s(I14
I7
I10
tp1576
I1
s(I10
I0
I13
tp1577
I1
s(I7
I0
I5
tp1578
I1
s(I13
I15
I8
tp1579
I1
s(I7
I15
I4
tp1580
I1
s(I15
I12
I0
tp1581
I1
s(I13
I11
I2
tp1582
I1
s(I11
I3
I11
tp1583
I1
s(I2
I12
I15
tp1584
I1
s(I4
I8
I3
tp1585
I1
s(I1
I9
I7
tp1586
I1
s(I13
I1
I9
tp1587
I1
s(I9
I10
I1
tp1588
I1
s(I6
I15
I2
tp1589
I1
s(I15
I4
I13
tp1590
I1
s(I14
I14
I2
tp1591
I1
s(I2
I8
I5
tp1592
I1
s(I11
I11
I6
tp1593
I1
s(I14
I3
I5
tp1594
I1
s(I10
I11
I15
tp1595
I1
s(I4
I0
I14
tp1596
I1
s(I13
I9
I12
tp1597
I1
s(I7
I4
I8
tp1598
I1
s(I3
I5
I6
tp1599
I1
s(I8
I12
I1
tp1600
I1
s(I12
I10
I4
tp1601
I1
s(I2
I7
I1
tp1602
I1
s(I5
I15
I0
tp1603
I1
s(I10
I3
I12
tp1604
I1
s(I3
I6
I8
tp1605
I1
s(I12
I5
I2
tp1606
I1
s(I6
I6
I10
tp1607
I1
s(I15
I13
I15
tp1608
I1
s(I2
I15
I14
tp1609
I1
s(I1
I7
I1
tp1610
I1
s(I13
I2
I8
tp1611
I1
s(I7
I9
I13
tp1612
I1
s(I8
I8
I6
tp1613
I1
s(I12
I13
I15
tp1614
I1
s(I11
I5
I0
tp1615
I1
s(I14
I9
I3
tp1616
I1
s(I2
I11
I4
tp1617
I1
s(I11
I8
I7
tp1618
I1
s(I4
I7
I15
tp1619
I1
s(I13
I10
I13
tp1620
I1
s(I3
I2
I7
tp1621
I1
s(I10
I9
I2
tp1622
I1
s(I7
I6
I3
tp1623
I1
s(I12
I4
I13
tp1624
I1
s(I11
I1
I5
tp1625
I1
s(I14
I5
I6
tp1626
I1
s(I1
I0
I0
tp1627
I1
s(I13
I3
I15
tp1628
I1
s(I3
I11
I4
tp1629
I1
s(I0
I3
I8
tp1630
I1
s(I9
I4
I15
tp1631
I1
s(I6
I4
I7
tp1632
I1
s(I13
I13
I2
tp1633
I1
s(I4
I6
I12
tp1634
I1
s(I0
I6
I6
tp1635
I1
s(I3
I12
I5
tp1636
I1
s(I7
I10
I6
tp1637
I1
s(I0
I11
I5
tp1638
I1
s(I3
I3
I4
tp1639
I1
s(I15
I11
I14
tp1640
I1
s(I8
I10
I3
tp1641
I1
s(I2
I9
I15
tp1642
I1
s(I14
I0
I15
tp1643
I1
s(I10
I8
I1
tp1644
I1
s(I7
I7
I0
tp1645
I1
s(I3
I4
I10
tp1646
I1
s(I12
I11
I12
tp1647
I1
s(I6
I0
I8
tp1648
I1
s(I10
I6
I13
tp1649
I1
s(I14
I4
I5
tp1650
I1
s(I2
I14
I8
tp1651
I1
s(I0
I2
I11
tp1652
I1
s(I9
I5
I12
tp1653
I1
s(I3
I8
I8
tp1654
I1
s(I7
I15
I15
tp1655
I1
s(I2
I0
I9
tp1656
I1
s(I1
I9
I14
tp1657
I1
s(I4
I5
I13
tp1658
I1
s(I13
I12
I11
tp1659
I1
s(I7
I11
I5
tp1660
I1
s(I3
I0
I5
tp1661
I1
s(I15
I8
I15
tp1662
I1
s(I12
I15
I3
tp1663
I1
s(I6
I15
I11
tp1664
I1
s(I2
I8
I12
tp1665
I1
s(I12
I2
I2
tp1666
I1
s(I1
I13
I4
tp1667
I1
s(I4
I7
I1
tp1668
I1
s(I6
I3
I9
tp1669
I1
s(I8
I1
I15
tp1670
I1
s(I12
I3
I11
tp1671
I1
s(I11
I15
I7
tp1672
I1
s(I7
I12
I14
tp1673
I1
s(I6
I6
I1
tp1674
I1
s(I11
I0
I3
tp1675
I1
s(I5
I11
I9
tp1676
I1
s(I14
I10
I14
tp1677
I1
s(I10
I15
I11
tp1678
I1
s(I0
I4
I0
tp1679
I1
s(I0
I9
I7
tp1680
I1
s(I15
I9
I8
tp1681
I1
s(I5
I8
I5
tp1682
I1
s(I13
I9
I7
tp1683
I1
s(I5
I3
I4
tp1684
I1
s(I1
I14
I5
tp1685
I1
s(I9
I15
I15
tp1686
I1
s(I7
I5
I14
tp1687
I1
s(I9
I2
I0
tp1688
I1
s(I3
I2
I12
tp1689
I1
s(I15
I10
I2
tp1690
I1
s(I6
I2
I6
tp1691
I1
s(I15
I1
I11
tp1692
I1
s(I14
I6
I3
tp1693
I1
s(I4
I3
I14
tp1694
I1
s(I9
I12
I3
tp1695
I1
s(I13
I6
I12
tp1696
I1
s(I0
I0
I5
tp1697
I1
s(I9
I7
I10
tp1698
I1
s(I3
I6
I6
tp1699
I1
s(I8
I4
I2
tp1700
I1
s(I2
I2
I15
tp1701
I1
s(I11
I1
I12
tp1702
I1
s(I5
I7
I1
tp1703
I1
s(I10
I14
I4
tp1704
I1
s(I13
I14
I9
tp1705
I1
s(I7
I9
I3
tp1706
I1
s(I5
I9
I6
tp1707
I1
s(I5
I4
I5
tp1708
I1
s(I1
I4
I11
tp1709
I1
s(I1
I15
I2
tp1710
I1
s(I7
I10
I15
tp1711
I1
s(I3
I3
I15
tp1712
I1
s(I12
I8
I9
tp1713
I1
s(I11
I6
I8
tp1714
I1
s(I4
I2
I13
tp1715
I1
s(I9
I13
I0
tp1716
I1
s(I13
I7
I3
tp1717
I1
s(I9
I0
I11
tp1718
I1
s(I8
I14
I8
tp1719
I1
s(I8
I3
I3
tp1720
I1
s(I11
I14
I13
tp1721
I1
s(I14
I4
I12
tp1722
I1
s(I10
I1
I5
tp1723
I1
s(I13
I4
I7
tp1724
I1
s(I3
I8
I1
tp1725
I1
s(I0
I8
I15
tp1726
I1
s(I12
I7
I15
tp1727
I1
s(I2
I0
I0
tp1728
I1
s(I1
I5
I8
tp1729
I1
s(I10
I12
I5
tp1730
I1
s(I10
I6
I14
tp1731
I1
s(I9
I9
I13
tp1732
I1
s(I7
I11
I12
tp1733
I1
s(I3
I0
I14
tp1734
I1
s(I15
I8
I0
tp1735
I1
s(I15
I7
I9
tp1736
I1
s(I11
I7
I11
tp1737
I1
s(I14
I15
I8
tp1738
I1
s(I14
I0
I1
tp1739
I1
s(I1
I13
I15
tp1740
I1
s(I9
I14
I1
tp1741
I1
s(I13
I8
I2
tp1742
I1
s(I0
I14
I7
tp1743
I1
s(I3
I4
I4
tp1744
I1
s(I8
I13
I9
tp1745
I1
s(I6
I3
I2
tp1746
I1
s(I2
I4
I13
tp1747
I1
s(I14
I7
I13
tp1748
I1
s(I10
I0
I6
tp1749
I1
s(I13
I15
I13
tp1750
I1
s(I15
I12
I11
tp1751
I1
s(I8
I5
I14
tp1752
I1
s(I5
I11
I0
tp1753
I1
s(I1
I6
I9
tp1754
I1
s(I7
I8
I13
tp1755
I1
s(I6
I15
I5
tp1756
I1
s(I15
I4
I8
tp1757
I1
s(I11
I11
I3
tp1758
I1
s(I14
I3
I0
tp1759
I1
s(I4
I11
I2
tp1760
I1
s(I9
I15
I6
tp1761
I1
s(I13
I9
I1
tp1762
I1
s(I0
I13
I6
tp1763
I1
s(I3
I5
I3
tp1764
I1
s(I6
I2
I13
tp1765
I1
s(I8
I1
I1
tp1766
I1
s(I14
I13
I3
tp1767
I1
s(I5
I15
I5
tp1768
I1
s(I10
I3
I7
tp1769
I1
s(I13
I6
I5
tp1770
I1
s(I7
I1
I15
tp1771
I1
s(I0
I0
I12
tp1772
I1
s(I8
I15
I0
tp1773
I1
s(I12
I5
I13
tp1774
I1
s(I15
I13
I4
tp1775
I1
s(I5
I12
I1
tp1776
I1
s(I2
I15
I9
tp1777
I1
s(I4
I15
I9
tp1778
I1
s(I7
I2
I3
tp1779
I1
s(I12
I0
I5
tp1780
I1
s(I15
I14
I6
tp1781
I1
s(I11
I8
I2
tp1782
I1
s(I1
I4
I0
tp1783
I1
s(I4
I10
I1
tp1784
I1
s(I1
I15
I9
tp1785
I1
s(I4
I7
I10
tp1786
I1
s(I9
I8
I7
tp1787
I1
s(I3
I15
I9
tp1788
I1
s(I0
I12
I1
tp1789
I1
s(I3
I2
I2
tp1790
I1
s(I8
I11
I15
tp1791
I1
s(I11
I6
I1
tp1792
I1
s(I11
I13
I8
tp1793
I1
s(I5
I0
I4
tp1794
I1
s(I3
I10
I11
tp1795
I1
s(I13
I7
I10
tp1796
I1
s(I7
I6
I14
tp1797
I1
s(I0
I15
I13
tp1798
I1
s(I3
I7
I12
tp1799
I1
s(I8
I14
I3
tp1800
I1
s(I15
I2
I5
tp1801
I1
s(I8
I3
I8
tp1802
I1
s(I6
I10
I7
tp1803
I1
s(I5
I13
I2
tp1804
I1
s(I5
I7
I15
tp1805
I1
s(I1
I0
I15
tp1806
I1
s(I3
I13
I2
tp1807
I1
s(I4
I6
I2
tp1808
I1
s(I9
I4
I2
tp1809
I1
s(I7
I14
I11
tp1810
I1
s(I12
I7
I4
tp1811
I1
s(I6
I4
I8
tp1812
I1
s(I15
I5
I14
tp1813
I1
s(I11
I2
I12
tp1814
I1
s(I1
I5
I3
tp1815
I1
s(I4
I9
I0
tp1816
I1
s(I1
I8
I8
tp1817
I1
s(I4
I6
I9
tp1818
I1
s(I0
I6
I11
tp1819
I1
s(I13
I11
I7
tp1820
I1
s(I0
I11
I0
tp1821
I1
s(I12
I3
I14
tp1822
I1
s(I11
I7
I2
tp1823
I1
s(I14
I15
I1
tp1824
I1
s(I2
I9
I2
tp1825
I1
s(I5
I1
I7
tp1826
I1
s(I10
I8
I10
tp1827
I1
s(I13
I11
I15
tp1828
I1
s(I7
I7
I13
tp1829
I1
s(I0
I14
I14
tp1830
I1
s(I15
I3
I6
tp1831
I1
s(I8
I2
I11
tp1832
I1
s(I2
I4
I4
tp1833
I1
s(I5
I14
I3
tp1834
I1
s(I2
I14
I13
tp1835
I1
s(I1
I1
I12
tp1836
I1
s(I4
I13
I11
tp1837
I1
s(I13
I15
I4
tp1838
I1
s(I12
I6
I7
tp1839
I1
s(I15
I12
I4
tp1840
I1
s(I12
I12
I12
tp1841
I1
s(I14
I11
I12
tp1842
I1
s(I13
I10
I11
tp1843
I1
s(I1
I6
I2
tp1844
I1
s(I4
I8
I7
tp1845
I1
s(I13
I1
I5
tp1846
I1
s(I0
I5
I10
tp1847
I1
s(I13
I12
I6
tp1848
I1
s(I8
I9
I13
tp1849
I1
s(I2
I8
I1
tp1850
I1
s(I11
I11
I10
tp1851
I1
s(I5
I2
I6
tp1852
I1
s(I14
I3
I9
tp1853
I1
s(I10
I11
I11
tp1854
I1
s(I10
I4
I2
tp1855
I1
s(I7
I4
I12
tp1856
I1
s(I3
I5
I10
tp1857
I1
s(I8
I12
I5
tp1858
I1
s(I12
I10
I0
tp1859
I1
s(I15
I0
I7
tp1860
I1
s(I8
I1
I10
tp1861
I1
s(I1
I2
I13
tp1862
I1
s(I4
I12
I4
tp1863
I1
s(I7
I1
I6
tp1864
I1
s(I6
I6
I14
tp1865
I1
s(I11
I0
I14
tp1866
I1
s(I14
I10
I3
tp1867
I1
s(I1
I7
I5
tp1868
I1
s(I1
I10
I10
tp1869
I1
s(I0
I4
I13
tp1870
I1
s(I9
I11
I10
tp1871
I1
s(I13
I13
I5
tp1872
I1
s(I0
I9
I2
tp1873
I1
s(I6
I5
I0
tp1874
I1
s(I6
I14
I9
tp1875
I1
s(I11
I5
I4
tp1876
I1
s(I5
I8
I8
tp1877
I1
s(I14
I9
I7
tp1878
I1
s(I10
I10
I12
tp1879
I1
s(I10
I7
I3
tp1880
I1
s(I13
I10
I9
tp1881
I1
s(I3
I2
I11
tp1882
I1
s(I15
I10
I9
tp1883
I1
s(I12
I9
I1
tp1884
I1
s(I2
I6
I10
tp1885
I1
s(I10
I2
I15
tp1886
I1
s(I9
I12
I6
tp1887
I1
s(I7
I6
I7
tp1888
I1
s(I6
I1
I15
tp1889
I1
s(I5
I7
I6
tp1890
I1
s(I1
I0
I4
tp1891
I1
s(I4
I14
I5
tp1892
I1
s(I4
I4
I14
tp1893
I1
s(I6
I4
I3
tp1894
I1
s(I8
I7
I3
tp1895
I1
s(I15
I5
I5
tp1896
I1
s(I11
I2
I5
tp1897
I1
s(I2
I10
I7
tp1898
I1
s(I1
I4
I14
tp1899
I1
s(I13
I11
I14
tp1900
I1
s(I7
I10
I2
tp1901
I1
s(I0
I11
I9
tp1902
I1
s(I8
I10
I7
tp1903
I1
s(I12
I8
I6
tp1904
I1
s(I15
I6
I1
tp1905
I1
s(I11
I6
I15
tp1906
I1
s(I2
I9
I11
tp1907
I1
s(I1
I12
I3
tp1908
I1
s(I10
I5
I14
tp1909
I1
s(I9
I13
I5
tp1910
I1
s(I9
I0
I6
tp1911
I1
s(I12
I11
I8
tp1912
I1
s(I6
I0
I12
tp1913
I1
s(I15
I3
I9
tp1914
I1
s(I14
I4
I1
tp1915
I1
s(I1
I1
I7
tp1916
I1
s(I4
I13
I4
tp1917
I1
s(I13
I4
I2
tp1918
I1
s(I9
I5
I8
tp1919
I1
s(I3
I8
I12
tp1920
I1
s(I12
I7
I10
tp1921
I1
s(I6
I7
I2
tp1922
I1
s(I12
I12
I3
tp1923
I1
s(I6
I8
I11
tp1924
I1
s(I11
I3
I6
tp1925
I1
s(I14
I11
I5
tp1926
I1
s(I11
I9
I11
tp1927
I1
s(I5
I5
I3
tp1928
I1
s(I1
I5
I13
tp1929
I1
s(I0
I5
I3
tp1930
I1
s(I15
I8
I11
tp1931
I1
s(I8
I9
I6
tp1932
I1
s(I12
I15
I7
tp1933
I1
s(I15
I7
I2
tp1934
I1
s(I11
I7
I12
tp1935
I1
s(I10
I4
I13
tp1936
I1
s(I4
I1
I7
tp1937
I1
s(I9
I14
I4
tp1938
I1
s(I1
I2
I6
tp1939
I1
s(I12
I6
I9
tp1940
I1
s(I6
I6
I5
tp1941
I1
s(I6
I11
I10
tp1942
I1
s(I2
I3
I4
tp1943
I1
s(I11
I0
I7
tp1944
I1
s(I5
I6
I2
tp1945
I1
s(I1
I6
I12
tp1946
I1
s(I10
I15
I15
tp1947
I1
s(I0
I4
I4
tp1948
I1
s(I13
I13
I12
tp1949
I1
s(I7
I8
I0
tp1950
I1
s(I0
I9
I11
tp1951
I1
s(I12
I1
I5
tp1952
I1
s(I15
I9
I12
tp1953
I1
s(I12
I14
I4
tp1954
I1
s(I15
I4
I3
tp1955
I1
s(I11
I4
I13
tp1956
I1
s(I2
I11
I9
tp1957
I1
s(I5
I3
I8
tp1958
I1
s(I15
I5
I3
tp1959
I1
s(I4
I0
I0
tp1960
I1
s(I9
I15
I3
tp1961
I1
s(I7
I5
I10
tp1962
I1
s(I8
I12
I11
tp1963
I1
s(I12
I9
I10
tp1964
I1
s(I6
I2
I2
tp1965
I1
s(I14
I13
I6
tp1966
I1
s(I8
I15
I7
tp1967
I1
s(I12
I5
I8
tp1968
I1
s(I8
I4
I6
tp1969
I1
s(I4
I4
I5
tp1970
I1
s(I7
I2
I6
tp1971
I1
s(I0
I3
I5
tp1972
I1
s(I13
I14
I13
tp1973
I1
s(I3
I1
I13
tp1974
I1
s(I6
I5
I14
tp1975
I1
s(I1
I4
I7
tp1976
I1
s(I2
I11
I13
tp1977
I1
s(I7
I10
I11
tp1978
I1
s(I12
I8
I13
tp1979
I1
s(I8
I0
I3
tp1980
I1
s(I11
I6
I4
tp1981
I1
s(I14
I12
I5
tp1982
I1
s(I10
I9
I12
tp1983
I1
s(I1
I12
I8
tp1984
I1
s(I4
I2
I9
tp1985
I1
s(I9
I0
I15
tp1986
I1
s(I3
I7
I1
tp1987
I1
s(I7
I13
I4
tp1988
I1
s(I8
I14
I4
tp1989
I1
s(I6
I0
I7
tp1990
I1
s(I8
I3
I7
tp1991
I1
s(I13
I12
I1
tp1992
I1
s(I2
I5
I2
tp1993
I1
s(I12
I3
I5
tp1994
I1
s(I5
I13
I15
tp1995
I1
s(I14
I4
I8
tp1996
I1
s(I1
I0
I10
tp1997
I1
s(I7
I3
I5
tp1998
I1
s(I0
I2
I6
tp1999
I1
s(I3
I8
I5
tp2000
I1
s(I12
I7
I3
tp2001
I1
s(I6
I4
I13
tp2002
I1
s(I15
I15
I14
tp2003
I1
s(I11
I2
I11
tp2004
I1
s(I5
I10
I3
tp2005
I1
s(I2
I13
I15
tp2006
I1
s(I5
I5
I10
tp2007
I1
s(I1
I5
I4
tp2008
I1
s(I10
I6
I10
tp2009
I1
s(I13
I0
I13
tp2010
I1
s(I9
I9
I1
tp2011
I1
s(I7
I11
I8
tp2012
I1
s(I12
I15
I12
tp2013
I1
s(I6
I12
I0
tp2014
I1
s(I14
I15
I4
tp2015
I1
s(I10
I8
I15
tp2016
I1
s(I1
I13
I11
tp2017
I1
s(I0
I14
I3
tp2018
I1
s(I8
I13
I5
tp2019
I1
s(I8
I2
I4
tp2020
I1
s(I5
I14
I14
tp2021
I1
s(I14
I7
I9
tp2022
I1
s(I1
I1
I9
tp2023
I1
s(I7
I0
I4
tp2024
I1
s(I13
I15
I9
tp2025
I1
s(I3
I9
I10
tp2026
I1
s(I6
I7
I12
tp2027
I1
s(I15
I12
I15
tp2028
I1
s(I8
I5
I10
tp2029
I1
s(I5
I11
I4
tp2030
I1
s(I5
I6
I11
tp2031
I1
s(I1
I6
I5
tp2032
I1
s(I4
I8
I12
tp2033
I1
s(I13
I1
I14
tp2034
I1
s(I12
I14
I15
tp2035
I1
s(I6
I15
I1
tp2036
I1
s(I11
I4
I6
tp2037
I1
s(I14
I3
I4
tp2038
I1
s(I10
I11
I14
tp2039
I1
s(I1
I14
I10
tp2040
I1
s(I4
I0
I15
tp2041
I1
s(I13
I9
I13
tp2042
I1
s(I3
I5
I7
tp2043
I1
s(I8
I12
I2
tp2044
I1
s(I12
I10
I5
tp2045
I1
s(I6
I2
I9
tp2046
I1
s(I8
I1
I5
tp2047
I1
s(I5
I15
I1
tp2048
I1
s(lp2049
I00
aI00
aI00
aI01
aI00
aI00
aI01
aI00
aI00
aI00
aI00
aI00
aI00
aI00
aI00
aI00
aI00
aI00
aI01
aI00
aI01
aI00
aI00
aI00
aI01
aI00
aI01
aI01
aI00
aI00
aI00
aI00
aI00
aI00
aI00
aI00
aI00
aI01
aI00
aI01
aI00
aI00
aI01
aI00
aI01
aI01
aI00
aI00
aI00
aI00
aI00
aI00
aI00
aI01
aI00
aI00
aI00
aI01
aI00
aI00
aI01
aI01
aI00
aI01
aI00
aI01
aI00
aI00
aI00
aI00
aI00
aI00
aI01
aI00
aI01
aI00
aI00
aI00
aI00
aI01
aI00
aI00
aI00
aI00
aI00
aI00
aI00
aI00
aI01
aI00
aI00
aI00
aI00
aI00
aI00
aI00
aI00
aI00
aI01
aI01
aI00
aI01
aI00
aI00
aI00
aI00
aI00
aI00
aI00
aI00
aI00
aI01
aI01
aI00
aI00
aI00
aI00
aI00
aI00
aI00
aI00
aI00
aI00
aI00
aI00
aI00
aI01
aI01
aI00
aI00
aI00
aI00
aI00
aI00
aI00
aI00
aI00
aI00
aI00
aI01
aI00
aI00
aI00
aI01
aI00
aI00
aI00
aI00
aI00
aI00
aI01
aI01
aI00
aI00
aI01
aI00
aI01
aI00
aI00
aI00
aI00
aI00
aI00
aI01
aI00
aI01
aI00
aI00
aI00
aI00
aI00
aI00
aI00
aI00
aI00
aI00
aI00
aI00
aI00
aI00
aI00
aI00
aI00
aI00
aI00
aI00
aI00
aI00
aI00
aI00
aI00
aI01
aI00
aI00
aI00
aI00
aI00
aI00
aI00
aI01
aI00
aI00
aI00
aI00
aI00
aI00
aI00
aI00
aI01
aI00
aI00
aI00
aI00
aI00
aI00
aI00
aI00
aI00
aI00
aI00
aI00
aI00
aI00
aI01
aI00
aI00
aI00
aI00
aI00
aI00
aI00
aI00
aI00
aI00
aI00
aI01
aI00
aI00
aI00
aI00
aI00
aI00
aI00
aI00
aI00
aI00
aI00
aI01
aI00
aI00
aI00
aI00
aI00
aI00
aI01
aI01
aI00
aI00
aI00
aI00
aI01
aI00
aI00
aI00
aI00
aI00
aI00
aI00
aI01
aI00
aI00
aI00
aI00
aI00
aI00
aI00
aI00
aI00
aI00
aI00
aI00
aI00
aI00
aI00
aI00
aI00
aI00
aI00
aI00
aI00
aI01
aI00
aI00
aI00
aI00
aI01
aI00
aI00
aI00
aI00
aI00
aI00
aI00
aI00
aI00
aI00
aI00
aI00
aI00
aI00
aI00
aI00
aI00
aI00
aI00
aI00
aI00
aI00
aI00
aI00
aI00
aI00
aI00
aI00
aI00
aI00
aI00
aI00
aI01
aI01
aI00
aI00
aI00
aI00
aI00
aI00
aI00
aI00
aI01
aI00
aI00
aI00
aI00
aI00
aI00
aI00
aI00
aI00
aI01
aI01
aI01
aI00
aI00
aI00
aI00
aI00
aI00
aI01
aI00
aI00
aI00
aI00
aI00
aI01
aI00
aI00
aI00
aI00
aI00
aI01
aI00
aI00
aI00
aI00
aI00
aI00
aI01
aI00
aI00
aI01
aI00
aI00
aI00
aI00
aI00
aI00
aI01
aI00
aI00
aI00
aI00
aI00
aI00
aI00
aI00
aI00
aI00
aI00
aI00
aI00
aI00
aI00
aI00
aI00
aI00
aI00
aI00
aI01
aI00
aI00
aI00
aI00
aI00
aI00
aI00
aI00
aI00
aI00
aI01
aI01
aI00
aI00
aI00
aI01
aI00
aI00
aI00
aI00
aI00
aI00
aI00
aI00
aI00
aI00
aI01
aI00
aI00
aI00
aI00
aI00
aI01
aI01
aI00
aI00
aI01
aI00
aI00
aI01
aI00
aI01
aI00
aI01
aI00
aI01
aI00
aI00
aI00
aI00
aI01
aI00
aI00
aI00
aI00
aI00
aI01
aI01
aI00
aI01
aI00
aI00
aI00
aI00
aI00
aI00
aI00
aI00
aI01
aI01
aI01
aI00
aI01
aI00
aI00
aI00
aI00
aI00
aI00
aI01
aI00
aI00
aI01
aI00
aI00
aI00
aI00
aI00
aI00
aI00
aI00
aI00
aI00
aI00
aI00
aI00
aI00
aI00
aI00
aI00
aI00
aI00
aI00
aI00
aI00
aI00
aI00
aI00
aI00
aI00
aI01
aI00
aI01
aI00
aI00
aI00
aI00
aI00
aI00
aI00
aI00
aI00
aI01
aI01
aI00
aI00
aI00
aI01
aI00
aI01
aI01
aI00
aI00
aI00
aI01
aI00
aI00
aI01
aI01
aI00
aI00
aI00
aI01
aI01
aI00
aI01
aI00
aI00
aI00
aI00
aI01
aI00
aI00
aI00
aI01
aI01
aI01
aI00
aI00
aI00
aI00
aI00
aI00
aI00
aI00
aI00
aI00
aI01
aI01
aI00
aI00
aI00
aI00
aI00
aI00
aI00
aI00
aI01
aI00
aI00
aI00
aI01
aI00
aI01
aI01
aI01
aI00
aI00
aI01
aI01
aI00
aI00
aI00
aI00
aI00
aI00
aI00
aI00
aI00
aI01
aI00
aI00
aI01
aI00
aI00
aI00
aI00
aI01
aI00
aI00
aI00
aI00
aI00
aI01
aI01
aI00
aI00
aI01
aI00
aI00
aI00
aI01
aI00
aI00
aI00
aI00
aI00
aI00
aI00
aI00
aI00
aI01
aI00
aI00
aI00
aI00
aI00
aI00
aI00
aI00
aI00
aI00
aI00
aI00
aI00
aI00
aI01
aI00
aI00
aI00
aI01
aI00
aI00
aI00
aI00
aI00
aI01
aI01
aI00
aI01
aI00
aI00
aI00
aI01
aI00
aI00
aI00
aI01
aI00
aI00
aI01
aI00
aI00
aI00
aI00
aI00
aI00
aI00
aI00
aI01
aI00
aI01
aI01
aI00
aI00
aI00
aI01
aI00
aI00
aI00
aI01
aI01
aI01
aI00
aI00
aI00
aI00
aI01
aI00
aI00
aI00
aI00
aI00
aI00
aI00
aI00
aI01
aI00
aI00
aI00
aI00
aI00
aI00
aI01
aI00
aI00
aI01
aI00
aI00
aI01
aI01
aI01
aI01
aI00
aI00
aI00
aI01
aI00
aI00
aI01
aI00
aI00
aI00
aI00
aI00
aI00
aI00
aI00
aI00
aI00
aI00
aI00
aI00
aI01
aI01
aI00
aI00
aI00
aI00
aI00
aI00
aI00
aI00
aI01
aI00
aI00
aI00
aI00
aI00
aI00
aI00
aI00
aI00
aI00
aI00
aI00
aI00
aI01
aI00
aI00
aI01
aI00
aI00
aI00
aI00
aI00
aI00
aI00
aI00
aI00
aI01
aI00
aI01
aI01
aI01
aI00
aI00
aI01
aI00
aI01
aI00
aI00
aI00
aI01
aI00
aI00
aI01
aI01
aI00
aI01
aI00
aI00
aI01
aI00
aI01
aI00
aI00
aI00
aI00
aI00
aI00
aI01
aI01
aI00
aI00
aI00
aI00
aI00
aI00
aI00
aI01
aI00
aI01
aI00
aI00
aI00
aI00
aI00
aI00
aI00
aI00
aI01
aI01
aI00
aI00
aI00
aI00
aI00
aI01
aI00
aI00
aI00
aI00
aI00
aI00
aI00
aI00
aI00
aI00
aI00
aI00
aI00
aI00
aI00
aI01
aI00
aI00
aI01
aI00
aI00
aI00
aI00
aI00
aI01
aI00
aI00
aI00
aI00
aI01
aI00
aI00
aI00
aI00
aI01
aI00
aI00
aI00
aI00
aI00
aI01
aI00
aI00
aI00
aI00
aI00
aI00
aI00
aI00
aI00
aI00
aI00
aI01
aI01
aI00
aI01
aI00
aI00
aI00
aI00
aI01
aI00
aI00
aI00
aI00
aI00
aI00
aI01
aI01
aI00
aI00
aI01
aI00
aI00
aI00
aI00
aI00
aI00
aI00
aI00
aI00
aI00
aI00
aI00
aI00
aI00
aI00
aI00
aI01
aI01
aI00
aI00
aI01
aI00
aI00
aI00
aI00
aI00
aI00
aI00
aI00
aI00
aI00
aI00
aI00
aI00
aI00
aI00
aI00
aI01
aI01
aI01
aI00
aI00
aI00
aI00
aI00
aI00
aI00
aI00
aI00
aI00
aI00
aI00
aI00
aI00
aI00
aI00
aI00
aI00
aI00
aI00
aI00
aI01
aI00
aI01
aI01
aI01
aI01
aI00
aI01
aI00
aI00
aI01
aI00
aI00
aI00
aI01
aI00
aI00
aI00
aI00
aI01
aI00
aI00
aI00
aI01
aI01
aI00
aI00
aI00
aI00
aI01
aI00
aI00
aI00
aI00
aI00
aI00
aI00
aI00
aI00
aI00
aI00
aI00
aI00
aI00
aI01
aI00
aI00
aI01
aI01
aI00
aI00
aI00
aI00
aI00
aI00
aI01
aI00
aI00
aI00
aI00
aI00
aI00
aI00
aI00
aI00
aI00
aI01
aI00
aI00
aI00
aI01
aI00
aI00
aI00
aI00
aI00
aI00
aI00
aI00
aI00
aI00
aI00
aI00
aI00
aI00
aI00
aI00
aI01
aI00
aI00
aI00
aI00
aI00
aI00
aI01
aI00
aI00
aI00
aI00
aI00
aI00
aI00
aI00
aI00
aI00
aI00
aI00
aI00
aI00
aI00
aI00
aI00
aI00
aI00
aI00
aI01
aI00
aI00
aI01
aI00
aI00
aI00
aI00
aI00
aI00
aI00
aI00
aI00
aI00
aI01
aI00
aI00
aI00
aI01
aI01
aI00
aI00
aI00
aI01
aI00
aI00
aI00
aI00
aI00
aI00
aI00
aI00
aI00
aI00
aI00
aI00
aI00
aI00
aI00
aI00
aI00
aI00
aI01
aI00
aI01
aI00
aI00
aI00
aI00
aI01
aI01
aI00
aI00
aI00
aI01
aI00
aI00
aI00
aI01
aI01
aI00
aI00
aI00
aI00
aI00
aI00
aI01
aI00
aI00
aI00
aI00
aI00
aI00
aI00
aI00
aI01
aI00
aI00
aI00
aI00
aI01
aI01
aI01
aI00
aI00
aI01
aI00
aI00
aI01
aI00
aI00
aI00
aI01
aI01
aI00
aI00
aI00
aI00
aI00
aI00
aI01
aI01
aI00
aI01
aI00
aI00
aI00
aI00
aI00
aI01
aI01
aI01
aI00
aI00
aI01
aI01
aI00
aI00
aI01
aI00
aI01
aI00
aI00
aI00
aI00
aI01
aI00
aI00
aI00
aI00
aI00
aI00
aI00
aI00
aI00
aI00
aI00
aI00
aI00
aI00
aI00
aI00
aI00
aI00
aI00
aI00
aI00
aI01
aI00
aI00
aI00
aI01
aI00
aI00
aI00
aI00
aI00
aI00
aI00
aI01
aI00
aI01
aI00
aI00
aI00
aI00
aI00
aI00
aI01
aI00
aI01
aI00
aI00
aI01
aI01
aI00
aI00
aI00
aI01
aI00
aI01
aI01
aI00
aI00
aI01
aI00
aI00
aI00
aI00
aI00
aI00
aI00
aI00
aI00
aI00
aI00
aI01
aI00
aI00
aI00
aI01
aI00
aI00
aI00
aI00
aI00
aI00
aI00
aI00
aI00
aI01
aI00
aI00
aI01
aI00
aI01
aI00
aI00
aI00
aI00
aI00
aI00
aI00
aI01
aI00
aI00
aI00
aI00
aI00
aI00
aI00
aI00
aI00
aI01
aI00
aI01
aI00
aI01
aI01
aI01
aI00
aI00
aI01
aI01
aI00
aI00
aI00
aI00
aI00
aI00
aI00
aI00
aI00
aI00
aI00
aI00
aI00
aI00
aI00
aI00
aI00
aI00
aI01
aI00
aI01
aI00
aI00
aI00
aI00
aI00
aI00
aI00
aI00
aI00
aI00
aI00
aI00
aI01
aI00
aI01
aI00
aI00
aI00
aI01
aI00
aI00
aI00
aI00
aI00
aI00
aI00
aI00
aI00
aI00
aI01
aI00
aI00
aI00
aI00
aI00
aI00
aI00
aI00
aI00
aI01
aI00
aI00
aI00
aI00
aI00
aI01
aI00
aI01
aI00
aI00
aI00
aI00
aI00
aI00
aI00
aI00
aI00
aI00
aI01
aI00
aI00
aI01
aI00
aI00
aI01
aI01
aI01
aI01
aI00
aI00
aI00
aI00
aI00
aI00
aI01
aI00
aI00
aI01
aI00
aI00
aI00
aI00
aI00
aI00
aI00
aI00
aI00
aI00
aI01
aI00
aI00
aI00
aI00
aI00
aI00
aI00
aI00
aI00
aI00
aI00
aI00
aI00
aI01
aI00
aI00
aI00
aI01
aI00
aI00
aI00
aI00
aI00
aI00
aI00
aI01
aI00
aI01
aI00
aI00
aI00
aI00
aI00
aI00
aI00
aI00
aI00
aI00
aI00
aI00
aI01
aI00
aI00
aI00
aI01
aI00
aI00
aI00
aI00
aI01
aI00
aI00
aI00
aI00
aI00
aI01
aI00
aI01
aI00
aI00
aI00
aI00
aI00
aI00
aI01
aI00
aI00
aI00
aI00
aI00
aI01
aI00
aI00
aI00
aI00
aI00
aI00
aI00
aI00
aI01
aI00
aI00
aI00
aI00
aI00
aI00
aI00
aI00
aI00
aI00
aI00
aI00
aI00
aI00
aI00
aI00
aI00
aI00
aI00
aI00
aI00
aI01
aI00
aI00
aI00
aI00
aI00
aI01
aI00
aI00
aI00
aI00
aI01
aI00
aI00
aI00
aI00
aI00
aI01
aI00
aI00
aI00
aI00
aI00
aI00
aI00
aI00
aI00
aI01
aI01
aI00
aI00
aI00
aI00
aI01
aI00
aI01
aI00
aI00
aI00
aI00
aI01
aI00
aI00
aI00
aI00
aI00
aI00
aI00
aI00
aI00
aI00
aI00
aI00
aI00
aI00
aI00
aI00
aI00
aI01
aI00
aI00
aI00
aI00
aI00
aI00
aI00
aI00
aI00
aI00
aI01
aI01
aI00
aI00
aI00
aI00
aI00
aI00
aI00
aI00
aI00
aI01
aI00
aI00
aI00
aI00
aI00
aI00
aI00
aS'63'
p2050
tp2051
.