((dp0
(I1
I2
I8
tp1
I1
s(I7
I1
I3
tp2
I1
s(I0
I0
I8
tp3
I1
s(I3
I6
I11
tp4
I1
s(I7
I12
I4
tp5
I1
s(I12
I5
I1
tp6
I1
s(I4
I13
I6
tp7
I1
s(I13
I4
I0
tp8
I1
s(I11
I0
I9
tp9
I1
s(I0
I2
I1
tp10
I1
s(I5
I12
I5
tp11
I1
s(I1
I7
I2
tp12
I1
s(I8
I6
I2
tp13
I1
s(I12
I12
I1
tp14
I1
s(I6
I8
I13
tp15
I1
s(I0
I4
I10
tp16
I1
s(I5
I10
I4
tp17
I1
s(I2
I13
I4
tp18
I1
s(I7
I9
I14
tp19
I1
s(I5
I5
I5
tp20
I1
s(I6
I5
I7
tp21
I1
s(I8
I8
I7
tp22
I1
s(I6
I14
I6
tp23
I1
s(I11
I5
I1
tp24
I1
s(I3
I13
I4
tp25
I1
s(I11
I8
I6
tp26
I1
s(I11
I14
I14
tp27
I1
s(I10
I10
I9
tp28
I1
s(I4
I7
I14
tp29
I1
s(I11
I7
I14
tp30
I1
s(I8
I1
I5
tp31
I1
s(I2
I14
I2
tp32
I1
s(I8
I11
I3
tp33
I1
s(I12
I9
I4
tp34
I1
s(I1
I13
I2
tp35
I1
s(I4
I1
I1
tp36
I1
s(I13
I8
I7
tp37
I1
s(I7
I4
I7
tp38
I1
s(I5
I0
I0
tp39
I1
s(I10
I9
I5
tp40
I1
s(I1
I3
I7
tp41
I1
s(I9
I12
I13
tp42
I1
s(I10
I7
I3
tp43
I1
s(I3
I7
I8
tp44
I1
s(I12
I4
I14
tp45
I1
s(I6
I1
I10
tp46
I1
s(I8
I3
I12
tp47
I1
s(I6
I10
I3
tp48
I1
s(I0
I1
I0
tp49
I1
s(I5
I13
I6
tp50
I1
s(I5
I7
I11
tp51
I1
s(I5
I12
I8
tp52
I1
s(I4
I14
I14
tp53
I1
s(I0
I3
I11
tp54
I1
s(I9
I4
I14
tp55
I1
s(I2
I12
I7
tp56
I1
s(I0
I8
I2
tp57
I1
s(I7
I3
I12
tp58
I1
s(I11
I2
I0
tp59
I1
s(I5
I9
I12
tp60
I1
s(I3
I10
I5
tp61
I1
s(I9
I5
I10
tp62
I1
s(I1
I8
I12
tp63
I1
s(I0
I6
I7
tp64
I1
s(I13
I11
I11
tp65
I1
s(I13
I9
I6
tp66
I1
s(I0
I11
I4
tp67
I1
s(I12
I8
I3
tp68
I1
s(I1
I14
I3
tp69
I1
s(I10
I7
I14
tp70
I1
s(I13
I9
I4
tp71
I1
s(I2
I9
I14
tp72
I1
s(I11
I10
I13
tp73
I1
s(I5
I1
I3
tp74
I1
s(I9
I13
I14
tp75
I1
s(I14
I13
I4
tp76
I1
s(I2
I7
I9
tp77
I1
s(I11
I12
I12
tp78
I1
s(I3
I4
I9
tp79
I1
s(I10
I3
I4
tp80
I1
s(I13
I6
I2
tp81
I1
s(I5
I14
I7
tp82
I1
s(I2
I14
I9
tp83
I1
s(I13
I4
I9
tp84
I1
s(I2
I2
I1
tp85
I1
s(I9
I5
I13
tp86
I1
s(I10
I14
I14
tp87
I1
s(I6
I8
I4
tp88
I1
s(I11
I3
I3
tp89
I1
s(I5
I10
I13
tp90
I1
s(I14
I11
I0
tp91
I1
s(I3
I11
I6
tp92
I1
s(I7
I9
I5
tp93
I1
s(I3
I1
I11
tp94
I1
s(I10
I12
I11
tp95
I1
s(I13
I1
I1
tp96
I1
s(I11
I5
I8
tp97
I1
s(I14
I9
I11
tp98
I1
s(I3
I13
I3
tp99
I1
s(I0
I10
I7
tp100
I1
s(I3
I0
I4
tp101
I1
s(I1
I4
I5
tp102
I1
s(I4
I10
I4
tp103
I1
s(I4
I7
I7
tp104
I1
s(I0
I7
I13
tp105
I1
s(I9
I8
I0
tp106
I1
s(I11
I11
I14
tp107
I1
s(I8
I11
I8
tp108
I1
s(I1
I13
I5
tp109
I1
s(I3
I12
I12
tp110
I1
s(I11
I6
I2
tp111
I1
s(I4
I5
I6
tp112
I1
s(I11
I13
I11
tp113
I1
s(I0
I13
I11
tp114
I1
s(I14
I1
I4
tp115
I1
s(I4
I9
I12
tp116
I1
s(I10
I9
I10
tp117
I1
s(I6
I3
I8
tp118
I1
s(I4
I2
I11
tp119
I1
s(I9
I3
I4
tp120
I1
s(I13
I7
I13
tp121
I1
s(I7
I6
I11
tp122
I1
s(I9
I0
I13
tp123
I1
s(I3
I7
I3
tp124
I1
s(I8
I9
I3
tp125
I1
s(I6
I0
I11
tp126
I1
s(I4
I12
I0
tp127
I1
s(I6
I10
I10
tp128
I1
s(I13
I5
I10
tp129
I1
s(I0
I1
I9
tp130
I1
s(I5
I13
I1
tp131
I1
s(I14
I4
I10
tp132
I1
s(I7
I12
I13
tp133
I1
s(I5
I14
I3
tp134
I1
s(I6
I6
I2
tp135
I1
s(I8
I5
I4
tp136
I1
s(I5
I4
I5
tp137
I1
s(I6
I11
I5
tp138
I1
s(I7
I3
I7
tp139
I1
s(I3
I8
I7
tp140
I1
s(I0
I8
I9
tp141
I1
s(I12
I7
I1
tp142
I1
s(I0
I4
I1
tp143
I1
s(I7
I11
I3
tp144
I1
s(I13
I13
I9
tp145
I1
s(I5
I5
I12
tp146
I1
s(I12
I1
I8
tp147
I1
s(I1
I5
I6
tp148
I1
s(I4
I9
I5
tp149
I1
s(I12
I14
I1
tp150
I1
s(I10
I6
I8
tp151
I1
s(I4
I6
I4
tp152
I1
s(I9
I9
I3
tp153
I1
s(I9
I9
I7
tp154
I1
s(I7
I11
I10
tp155
I1
s(I5
I3
I5
tp156
I1
s(I10
I10
I0
tp157
I1
s(I1
I14
I4
tp158
I1
s(I6
I12
I2
tp159
I1
s(I9
I3
I12
tp160
I1
s(I14
I0
I7
tp161
I1
s(I6
I2
I7
tp162
I1
s(I5
I13
I14
tp163
I1
s(I4
I1
I10
tp164
I1
s(I9
I7
I7
tp165
I1
s(I14
I13
I13
tp166
I1
s(I11
I12
I5
tp167
I1
s(I0
I14
I13
tp168
I1
s(I5
I0
I9
tp169
I1
s(I3
I4
I2
tp170
I1
s(I9
I12
I2
tp171
I1
s(I0
I0
I6
tp172
I1
s(I14
I7
I11
tp173
I1
s(I10
I12
I4
tp174
I1
s(I1
I1
I11
tp175
I1
s(I10
I0
I12
tp176
I1
s(I11
I1
I13
tp177
I1
s(I5
I12
I11
tp178
I1
s(I3
I12
I1
tp179
I1
s(I3
I9
I8
tp180
I1
s(I5
I7
I2
tp181
I1
s(I6
I7
I14
tp182
I1
s(I7
I2
I13
tp183
I1
s(I2
I12
I14
tp184
I1
s(I5
I6
I13
tp185
I1
s(I4
I8
I2
tp186
I1
s(I12
I13
I0
tp187
I1
s(I1
I9
I6
tp188
I1
s(I13
I1
I8
tp189
I1
s(I7
I8
I11
tp190
I1
s(I14
I2
I9
tp191
I1
s(I1
I4
I10
tp192
I1
s(I11
I10
I14
tp193
I1
s(I9
I8
I9
tp194
I1
s(I2
I8
I4
tp195
I1
s(I11
I11
I9
tp196
I1
s(I9
I3
I0
tp197
I1
s(I14
I3
I6
tp198
I1
s(I3
I3
I12
tp199
I1
s(I10
I11
I8
tp200
I1
s(I12
I8
I10
tp201
I1
s(I8
I0
I8
tp202
I1
s(I11
I6
I11
tp203
I1
s(I11
I13
I2
tp204
I1
s(I5
I1
I10
tp205
I1
s(I8
I12
I0
tp206
I1
s(I12
I10
I7
tp207
I1
s(I13
I7
I4
tp208
I1
s(I14
I6
I12
tp209
I1
s(I7
I13
I9
tp210
I1
s(I8
I14
I9
tp211
I1
s(I8
I3
I2
tp212
I1
s(I11
I9
I10
tp213
I1
s(I2
I5
I9
tp214
I1
s(I11
I14
I12
tp215
I1
s(I5
I13
I8
tp216
I1
s(I12
I5
I3
tp217
I1
s(I10
I1
I4
tp218
I1
s(I3
I8
I0
tp219
I1
s(I9
I13
I13
tp220
I1
s(I12
I7
I14
tp221
I1
s(I1
I7
I0
tp222
I1
s(I8
I6
I12
tp223
I1
s(I0
I4
I8
tp224
I1
s(I5
I10
I6
tp225
I1
s(I3
I10
I11
tp226
I1
s(I2
I13
I10
tp227
I1
s(I10
I12
I2
tp228
I1
s(I4
I9
I14
tp229
I1
s(I1
I8
I2
tp230
I1
s(I6
I14
I4
tp231
I1
s(I14
I9
I0
tp232
I1
s(I2
I11
I5
tp233
I1
s(I12
I2
I0
tp234
I1
s(I6
I12
I5
tp235
I1
s(I4
I7
I12
tp236
I1
s(I11
I7
I8
tp237
I1
s(I13
I10
I14
tp238
I1
s(I0
I12
I11
tp239
I1
s(I5
I2
I11
tp240
I1
s(I3
I2
I4
tp241
I1
s(I8
I11
I1
tp242
I1
s(I11
I0
I7
tp243
I1
s(I9
I14
I0
tp244
I1
s(I9
I1
I9
tp245
I1
s(I14
I1
I13
tp246
I1
s(I10
I9
I3
tp247
I1
s(I8
I13
I8
tp248
I1
s(I1
I3
I5
tp249
I1
s(I6
I3
I1
tp250
I1
s(I8
I2
I1
tp251
I1
s(I9
I12
I11
tp252
I1
s(I2
I4
I10
tp253
I1
s(I7
I6
I0
tp254
I1
s(I3
I7
I10
tp255
I1
s(I13
I5
I5
tp256
I1
s(I11
I1
I4
tp257
I1
s(I5
I7
I9
tp258
I1
s(I12
I6
I13
tp259
I1
s(I8
I5
I13
tp260
I1
s(I13
I3
I14
tp261
I1
s(I0
I3
I9
tp262
I1
s(I13
I14
I1
tp263
I1
s(I5
I6
I6
tp264
I1
s(I6
I2
I9
tp265
I1
s(I9
I9
I12
tp266
I1
s(I4
I8
I9
tp267
I1
s(I1
I9
I1
tp268
I1
s(I6
I9
I5
tp269
I1
s(I2
I1
I11
tp270
I1
s(I9
I10
I11
tp271
I1
s(I2
I10
I2
tp272
I1
s(I6
I0
I12
tp273
I1
s(I12
I1
I1
tp274
I1
s(I12
I14
I8
tp275
I1
s(I11
I4
I9
tp276
I1
s(I13
I11
I9
tp277
I1
s(I11
I11
I0
tp278
I1
s(I5
I3
I12
tp279
I1
s(I4
I11
I5
tp280
I1
s(I1
I14
I13
tp281
I1
s(I3
I14
I13
tp282
I1
s(I5
I1
I13
tp283
I1
s(I10
I0
I8
tp284
I1
s(I10
I5
I11
tp285
I1
s(I4
I2
I5
tp286
I1
s(I7
I10
I2
tp287
I1
s(I2
I7
I11
tp288
I1
s(I11
I12
I14
tp289
I1
s(I9
I0
I3
tp290
I1
s(I3
I4
I11
tp291
I1
s(I10
I3
I6
tp292
I1
s(I13
I6
I4
tp293
I1
s(I3
I3
I8
tp294
I1
s(I14
I4
I4
tp295
I1
s(I2
I14
I7
tp296
I1
s(I12
I5
I12
tp297
I1
s(I1
I1
I2
tp298
I1
s(I5
I12
I0
tp299
I1
s(I6
I7
I7
tp300
I1
s(I4
I4
I1
tp301
I1
s(I2
I0
I8
tp302
I1
s(I11
I3
I5
tp303
I1
s(I2
I13
I3
tp304
I1
s(I7
I9
I11
tp305
I1
s(I3
I1
I9
tp306
I1
s(I6
I5
I10
tp307
I1
s(I13
I4
I7
tp308
I1
s(I12
I13
I9
tp309
I1
s(I8
I5
I3
tp310
I1
s(I11
I5
I14
tp311
I1
s(I13
I12
I8
tp312
I1
s(I11
I8
I1
tp313
I1
s(I0
I10
I9
tp314
I1
s(I5
I4
I13
tp315
I1
s(I3
I0
I6
tp316
I1
s(I4
I10
I6
tp317
I1
s(I0
I7
I11
tp318
I1
s(I9
I8
I6
tp319
I1
s(I10
I11
I1
tp320
I1
s(I1
I13
I7
tp321
I1
s(I3
I5
I12
tp322
I1
s(I10
I9
I8
tp323
I1
s(I12
I10
I14
tp324
I1
s(I3
I7
I13
tp325
I1
s(I7
I13
I0
tp326
I1
s(I8
I14
I0
tp327
I1
s(I1
I2
I3
tp328
I1
s(I6
I10
I8
tp329
I1
s(I13
I5
I12
tp330
I1
s(I2
I5
I6
tp331
I1
s(I0
I1
I11
tp332
I1
s(I3
I9
I6
tp333
I1
s(I1
I0
I14
tp334
I1
s(I10
I1
I13
tp335
I1
s(I2
I3
I9
tp336
I1
s(I7
I3
I1
tp337
I1
s(I9
I4
I5
tp338
I1
s(I14
I10
I13
tp339
I1
s(I7
I14
I10
tp340
I1
s(I4
I2
I6
tp341
I1
s(I12
I7
I7
tp342
I1
s(I6
I4
I9
tp343
I1
s(I13
I2
I2
tp344
I1
s(I3
I10
I0
tp345
I1
s(I0
I9
I8
tp346
I1
s(I5
I5
I14
tp347
I1
s(I12
I1
I10
tp348
I1
s(I1
I5
I0
tp349
I1
s(I12
I14
I3
tp350
I1
s(I10
I6
I6
tp351
I1
s(I13
I0
I9
tp352
I1
s(I9
I9
I5
tp353
I1
s(I2
I13
I11
tp354
I1
s(I2
I11
I14
tp355
I1
s(I0
I11
I3
tp356
I1
s(I10
I10
I6
tp357
I1
s(I8
I10
I13
tp358
I1
s(I4
I8
I6
tp359
I1
s(I1
I14
I6
tp360
I1
s(I6
I12
I12
tp361
I1
s(I8
I5
I10
tp362
I1
s(I2
I9
I5
tp363
I1
s(I5
I1
I4
tp364
I1
s(I14
I0
I9
tp365
I1
s(I10
I8
I11
tp366
I1
s(I6
I2
I5
tp367
I1
s(I14
I13
I11
tp368
I1
s(I11
I12
I7
tp369
I1
s(I8
I2
I7
tp370
I1
s(I3
I4
I12
tp371
I1
s(I12
I11
I2
tp372
I1
s(I1
I3
I12
tp373
I1
s(I8
I2
I8
tp374
I1
s(I2
I14
I14
tp375
I1
s(I1
I1
I13
tp376
I1
s(I10
I0
I14
tp377
I1
s(I7
I0
I0
tp378
I1
s(I14
I5
I12
tp379
I1
s(I6
I7
I8
tp380
I1
s(I12
I12
I13
tp381
I1
s(I12
I14
I6
tp382
I1
s(I13
I3
I5
tp383
I1
s(I7
I2
I11
tp384
I1
s(I3
I11
I3
tp385
I1
s(I10
I6
I1
tp386
I1
s(I1
I6
I1
tp387
I1
s(I12
I13
I2
tp388
I1
s(I1
I9
I8
tp389
I1
s(I13
I1
I10
tp390
I1
s(I2
I1
I0
tp391
I1
s(I9
I10
I4
tp392
I1
s(I3
I13
I8
tp393
I1
s(I0
I10
I0
tp394
I1
s(I14
I2
I7
tp395
I1
s(I1
I4
I8
tp396
I1
s(I10
I13
I7
tp397
I1
s(I8
I9
I12
tp398
I1
s(I4
I7
I2
tp399
I1
s(I11
I4
I2
tp400
I1
s(I2
I8
I6
tp401
I1
s(I11
I11
I11
tp402
I1
s(I5
I2
I5
tp403
I1
s(I14
I3
I8
tp404
I1
s(I12
I3
I1
tp405
I1
s(I6
I13
I4
tp406
I1
s(I8
I0
I6
tp407
I1
s(I2
I11
I11
tp408
I1
s(I14
I12
I8
tp409
I1
s(I3
I14
I2
tp410
I1
s(I7
I4
I11
tp411
I1
s(I0
I13
I14
tp412
I1
s(I8
I12
I6
tp413
I1
s(I12
I10
I1
tp414
I1
s(I8
I1
I9
tp415
I1
s(I9
I13
I3
tp416
I1
s(I13
I7
I2
tp417
I1
s(I2
I7
I4
tp418
I1
s(I9
I0
I8
tp419
I1
s(I3
I7
I4
tp420
I1
s(I8
I14
I11
tp421
I1
s(I1
I2
I12
tp422
I1
s(I4
I12
I5
tp423
I1
s(I11
I11
I13
tp424
I1
s(I9
I6
I7
tp425
I1
s(I7
I12
I8
tp426
I1
s(I12
I5
I5
tp427
I1
s(I10
I1
I2
tp428
I1
s(I6
I11
I0
tp429
I1
s(I13
I4
I4
tp430
I1
s(I14
I10
I4
tp431
I1
s(I3
I8
I2
tp432
I1
s(I0
I8
I14
tp433
I1
s(I12
I7
I12
tp434
I1
s(I1
I7
I6
tp435
I1
s(I13
I9
I14
tp436
I1
s(I1
I10
I9
tp437
I1
s(I13
I2
I11
tp438
I1
s(I9
I11
I11
tp439
I1
s(I3
I10
I9
tp440
I1
s(I0
I9
I1
tp441
I1
s(I3
I1
I0
tp442
I1
s(I6
I5
I3
tp443
I1
s(I4
I9
I8
tp444
I1
s(I9
I5
I8
tp445
I1
s(I6
I14
I10
tp446
I1
s(I13
I0
I14
tp447
I1
s(I11
I5
I5
tp448
I1
s(I5
I8
I11
tp449
I1
s(I14
I9
I6
tp450
I1
s(I5
I3
I2
tp451
I1
s(I12
I2
I2
tp452
I1
s(I10
I7
I2
tp453
I1
s(I9
I2
I9
tp454
I1
s(I0
I7
I0
tp455
I1
s(I11
I0
I4
tp456
I1
s(I13
I10
I8
tp457
I1
s(I0
I12
I9
tp458
I1
s(I14
I0
I0
tp459
I1
s(I3
I2
I10
tp460
I1
s(I4
I1
I13
tp461
I1
s(I9
I14
I2
tp462
I1
s(I13
I8
I3
tp463
I1
s(I0
I14
I6
tp464
I1
s(I10
I9
I1
tp465
I1
s(I1
I3
I3
tp466
I1
s(I6
I3
I3
tp467
I1
s(I4
I3
I4
tp468
I1
s(I9
I12
I9
tp469
I1
s(I9
I7
I0
tp470
I1
s(I12
I4
I10
tp471
I1
s(I6
I1
I14
tp472
I1
s(I13
I14
I7
tp473
I1
s(I11
I1
I2
tp474
I1
s(I3
I9
I13
tp475
I1
s(I4
I14
I2
tp476
I1
s(I13
I3
I12
tp477
I1
s(I9
I4
I10
tp478
I1
s(I3
I11
I10
tp479
I1
s(I2
I12
I11
tp480
I1
s(I5
I6
I8
tp481
I1
s(I8
I7
I2
tp482
I1
s(I1
I9
I3
tp483
I1
s(I6
I9
I11
tp484
I1
s(I2
I1
I9
tp485
I1
s(I5
I9
I8
tp486
I1
s(I14
I8
I5
tp487
I1
s(I5
I4
I3
tp488
I1
s(I12
I1
I3
tp489
I1
s(I9
I1
I1
tp490
I1
s(I11
I4
I11
tp491
I1
s(I7
I10
I5
tp492
I1
s(I0
I11
I8
tp493
I1
s(I14
I3
I1
tp494
I1
s(I3
I3
I9
tp495
I1
s(I6
I3
I2
tp496
I1
s(I3
I14
I11
tp497
I1
s(I0
I13
I7
tp498
I1
s(I3
I5
I2
tp499
I1
s(I8
I12
I13
tp500
I1
s(I1
I8
I13
tp501
I1
s(I4
I8
I12
tp502
I1
s(I10
I5
I9
tp503
I1
s(I8
I1
I2
tp504
I1
s(I9
I13
I10
tp505
I1
s(I14
I13
I0
tp506
I1
s(I7
I7
I5
tp507
I1
s(I9
I10
I1
tp508
I1
s(I14
I6
I9
tp509
I1
s(I7
I13
I14
tp510
I1
s(I13
I6
I6
tp511
I1
s(I0
I0
I11
tp512
I1
s(I3
I6
I12
tp513
I1
s(I7
I12
I1
tp514
I1
s(I1
I1
I4
tp515
I1
s(I4
I13
I3
tp516
I1
s(I13
I4
I13
tp517
I1
s(I2
I2
I5
tp518
I1
s(I3
I8
I11
tp519
I1
s(I5
I10
I9
tp520
I1
s(I14
I11
I4
tp521
I1
s(I11
I9
I12
tp522
I1
s(I7
I9
I9
tp523
I1
s(I12
I0
I4
tp524
I1
s(I6
I5
I8
tp525
I1
s(I6
I14
I1
tp526
I1
s(I9
I7
I12
tp527
I1
s(I13
I12
I14
tp528
I1
s(I7
I11
I6
tp529
I1
s(I0
I10
I11
tp530
I1
s(I3
I6
I0
tp531
I1
s(I3
I0
I8
tp532
I1
s(I1
I4
I1
tp533
I1
s(I8
I9
I5
tp534
I1
s(I0
I7
I9
tp535
I1
s(I2
I8
I9
tp536
I1
s(I5
I2
I14
tp537
I1
s(I3
I2
I3
tp538
I1
s(I8
I11
I12
tp539
I1
s(I1
I13
I1
tp540
I1
s(I6
I13
I13
tp541
I1
s(I4
I1
I6
tp542
I1
s(I9
I5
I4
tp543
I1
s(I9
I1
I2
tp544
I1
s(I14
I1
I8
tp545
I1
s(I10
I9
I6
tp546
I1
s(I12
I10
I8
tp547
I1
s(I10
I2
I7
tp548
I1
s(I9
I12
I14
tp549
I1
s(I7
I0
I8
tp550
I1
s(I8
I14
I2
tp551
I1
s(I12
I4
I1
tp552
I1
s(I1
I2
I5
tp553
I1
s(I8
I3
I9
tp554
I1
s(I13
I5
I14
tp555
I1
s(I2
I5
I4
tp556
I1
s(I3
I3
I13
tp557
I1
s(I10
I7
I9
tp558
I1
s(I5
I7
I14
tp559
I1
s(I1
I0
I12
tp560
I1
s(I4
I14
I13
tp561
I1
s(I13
I3
I11
tp562
I1
s(I11
I0
I6
tp563
I1
s(I9
I4
I3
tp564
I1
s(I14
I10
I11
tp565
I1
s(I2
I12
I2
tp566
I1
s(I9
I10
I9
tp567
I1
s(I5
I12
I2
tp568
I1
s(I2
I1
I14
tp569
I1
s(I11
I2
I13
tp570
I1
s(I7
I8
I7
tp571
I1
s(I0
I9
I10
tp572
I1
s(I12
I1
I4
tp573
I1
s(I1
I5
I2
tp574
I1
s(I1
I8
I9
tp575
I1
s(I5
I8
I0
tp576
I1
s(I3
I12
I9
tp577
I1
s(I2
I11
I8
tp578
I1
s(I0
I11
I1
tp579
I1
s(I5
I3
I9
tp580
I1
s(I3
I3
I0
tp581
I1
s(I1
I14
I0
tp582
I1
s(I10
I7
I11
tp583
I1
s(I4
I0
I1
tp584
I1
s(I2
I9
I3
tp585
I1
s(I7
I5
I11
tp586
I1
s(I5
I1
I6
tp587
I1
s(I14
I0
I11
tp588
I1
s(I10
I8
I5
tp589
I1
s(I7
I4
I8
tp590
I1
s(I4
I11
I6
tp591
I1
s(I11
I9
I4
tp592
I1
s(I11
I12
I1
tp593
I1
s(I0
I14
I9
tp594
I1
s(I14
I6
I0
tp595
I1
s(I9
I2
I14
tp596
I1
s(I8
I13
I3
tp597
I1
s(I12
I11
I0
tp598
I1
s(I2
I4
I7
tp599
I1
s(I5
I14
I4
tp600
I1
s(I2
I14
I12
tp601
I1
s(I6
I1
I7
tp602
I1
s(I4
I13
I12
tp603
I1
s(I7
I2
I4
tp604
I1
s(I13
I4
I10
tp605
I1
s(I11
I1
I9
tp606
I1
s(I14
I5
I10
tp607
I1
s(I12
I10
I4
tp608
I1
s(I12
I12
I11
tp609
I1
s(I6
I8
I3
tp610
I1
s(I4
I4
I6
tp611
I1
s(I2
I0
I13
tp612
I1
s(I7
I2
I9
tp613
I1
s(I1
I6
I3
tp614
I1
s(I8
I7
I11
tp615
I1
s(I11
I5
I11
tp616
I1
s(I9
I10
I6
tp617
I1
s(I13
I12
I7
tp618
I1
s(I5
I4
I8
tp619
I1
s(I3
I0
I1
tp620
I1
s(I8
I9
I14
tp621
I1
s(I4
I7
I0
tp622
I1
s(I0
I7
I14
tp623
I1
s(I9
I8
I13
tp624
I1
s(I7
I10
I10
tp625
I1
s(I10
I11
I4
tp626
I1
s(I0
I9
I3
tp627
I1
s(I12
I8
I14
tp628
I1
s(I6
I13
I2
tp629
I1
s(I8
I0
I4
tp630
I1
s(I9
I14
I12
tp631
I1
s(I14
I12
I10
tp632
I1
s(I7
I4
I13
tp633
I1
s(I0
I13
I8
tp634
I1
s(I14
I1
I1
tp635
I1
s(I1
I12
I11
tp636
I1
s(I4
I2
I14
tp637
I1
s(I2
I7
I6
tp638
I1
s(I9
I0
I14
tp639
I1
s(I3
I7
I6
tp640
I1
s(I7
I13
I5
tp641
I1
s(I8
I8
I1
tp642
I1
s(I8
I14
I5
tp643
I1
s(I10
I3
I9
tp644
I1
s(I8
I3
I6
tp645
I1
s(I13
I5
I9
tp646
I1
s(I2
I5
I13
tp647
I1
s(I11
I14
I8
tp648
I1
s(I5
I13
I12
tp649
I1
s(I10
I1
I0
tp650
I1
s(I13
I12
I10
tp651
I1
s(I6
I11
I2
tp652
I1
s(I14
I2
I10
tp653
I1
s(I0
I2
I7
tp654
I1
s(I14
I10
I2
tp655
I1
s(I3
I8
I4
tp656
I1
s(I8
I6
I8
tp657
I1
s(I1
I10
I11
tp658
I1
s(I11
I2
I10
tp659
I1
s(I9
I11
I9
tp660
I1
s(I12
I2
I9
tp661
I1
s(I3
I6
I7
tp662
I1
s(I1
I5
I5
tp663
I1
s(I6
I5
I1
tp664
I1
s(I4
I9
I10
tp665
I1
s(I4
I6
I3
tp666
I1
s(I11
I8
I12
tp667
I1
s(I5
I3
I0
tp668
I1
s(I10
I10
I3
tp669
I1
s(I6
I12
I1
tp670
I1
s(I11
I7
I4
tp671
I1
s(I7
I5
I2
tp672
I1
s(I3
I2
I8
tp673
I1
s(I10
I8
I12
tp674
I1
s(I3
I12
I7
tp675
I1
s(I12
I9
I2
tp676
I1
s(I14
I13
I14
tp677
I1
s(I13
I8
I1
tp678
I1
s(I9
I1
I13
tp679
I1
s(I9
I3
I6
tp680
I1
s(I8
I13
I4
tp681
I1
s(I6
I3
I5
tp682
I1
s(I7
I6
I4
tp683
I1
s(I5
I14
I13
tp684
I1
s(I14
I7
I8
tp685
I1
s(I12
I4
I8
tp686
I1
s(I7
I10
I9
tp687
I1
s(I0
I1
I6
tp688
I1
s(I5
I7
I5
tp689
I1
s(I1
I0
I5
tp690
I1
s(I4
I14
I4
tp691
I1
s(I13
I3
I2
tp692
I1
s(I11
I3
I9
tp693
I1
s(I0
I3
I13
tp694
I1
s(I5
I11
I5
tp695
I1
s(I13
I14
I5
tp696
I1
s(I5
I6
I10
tp697
I1
s(I4
I8
I13
tp698
I1
s(I4
I5
I2
tp699
I1
s(I2
I1
I7
tp700
I1
s(I14
I8
I7
tp701
I1
s(I2
I10
I6
tp702
I1
s(I14
I2
I12
tp703
I1
s(I10
I13
I2
tp704
I1
s(I9
I8
I10
tp705
I1
s(I13
I11
I13
tp706
I1
s(I10
I14
I3
tp707
I1
s(I9
I3
I3
tp708
I1
s(I12
I3
I4
tp709
I1
s(I4
I11
I1
tp710
I1
s(I1
I14
I9
tp711
I1
s(I11
I6
I12
tp712
I1
s(I13
I9
I2
tp713
I1
s(I2
I9
I8
tp714
I1
s(I0
I13
I1
tp715
I1
s(I9
I2
I12
tp716
I1
s(I3
I5
I0
tp717
I1
s(I8
I12
I3
tp718
I1
s(I12
I8
I12
tp719
I1
s(I9
I13
I4
tp720
I1
s(I4
I4
I8
tp721
I1
s(I11
I12
I10
tp722
I1
s(I9
I0
I7
tp723
I1
s(I10
I3
I2
tp724
I1
s(I14
I13
I1
tp725
I1
s(I11
I14
I1
tp726
I1
s(I0
I0
I9
tp727
I1
s(I14
I4
I0
tp728
I1
s(I7
I12
I3
tp729
I1
s(I12
I3
I11
tp730
I1
s(I8
I4
I14
tp731
I1
s(I11
I0
I8
tp732
I1
s(I7
I9
I2
tp733
I1
s(I12
I7
I11
tp734
I1
s(I1
I7
I3
tp735
I1
s(I10
I14
I8
tp736
I1
s(I12
I12
I2
tp737
I1
s(I1
I10
I4
tp738
I1
s(I0
I4
I11
tp739
I1
s(I9
I11
I0
tp740
I1
s(I5
I0
I10
tp741
I1
s(I3
I1
I5
tp742
I1
s(I6
I5
I6
tp743
I1
s(I3
I12
I6
tp744
I1
s(I12
I13
I13
tp745
I1
s(I11
I5
I2
tp746
I1
s(I5
I8
I14
tp747
I1
s(I13
I12
I12
tp748
I1
s(I7
I11
I0
tp749
I1
s(I0
I10
I13
tp750
I1
s(I12
I2
I7
tp751
I1
s(I10
I10
I10
tp752
I1
s(I8
I9
I7
tp753
I1
s(I8
I3
I4
tp754
I1
s(I2
I8
I11
tp755
I1
s(I0
I12
I6
tp756
I1
s(I5
I2
I8
tp757
I1
s(I1
I13
I3
tp758
I1
s(I10
I4
I12
tp759
I1
s(I9
I14
I5
tp760
I1
s(I13
I8
I6
tp761
I1
s(I5
I0
I3
tp762
I1
s(I10
I9
I4
tp763
I1
s(I8
I3
I3
tp764
I1
s(I2
I4
I9
tp765
I1
s(I7
I2
I3
tp766
I1
s(I13
I5
I0
tp767
I1
s(I11
I1
I7
tp768
I1
s(I10
I1
I14
tp769
I1
s(I3
I9
I2
tp770
I1
s(I5
I7
I12
tp771
I1
s(I6
I6
I4
tp772
I1
s(I8
I5
I2
tp773
I1
s(I9
I7
I6
tp774
I1
s(I13
I3
I9
tp775
I1
s(I2
I3
I5
tp776
I1
s(I9
I4
I1
tp777
I1
s(I14
I10
I9
tp778
I1
s(I7
I14
I14
tp779
I1
s(I1
I6
I13
tp780
I1
s(I6
I9
I6
tp781
I1
s(I2
I1
I12
tp782
I1
s(I11
I2
I3
tp783
I1
s(I9
I10
I8
tp784
I1
s(I14
I8
I14
tp785
I1
s(I3
I10
I4
tp786
I1
s(I7
I8
I1
tp787
I1
s(I12
I1
I6
tp788
I1
s(I10
I13
I11
tp789
I1
s(I4
I9
I3
tp790
I1
s(I12
I14
I7
tp791
I1
s(I4
I6
I10
tp792
I1
s(I11
I4
I14
tp793
I1
s(I0
I6
I4
tp794
I1
s(I14
I14
I11
tp795
I1
s(I3
I12
I11
tp796
I1
s(I0
I11
I7
tp797
I1
s(I3
I3
I2
tp798
I1
s(I13
I11
I5
tp799
I1
s(I8
I10
I1
tp800
I1
s(I1
I14
I2
tp801
I1
s(I6
I12
I8
tp802
I1
s(I13
I9
I5
tp803
I1
s(I7
I5
I9
tp804
I1
s(I9
I2
I5
tp805
I1
s(I8
I12
I10
tp806
I1
s(I12
I9
I11
tp807
I1
s(I10
I5
I4
tp808
I1
s(I2
I7
I8
tp809
I1
s(I7
I7
I14
tp810
I1
s(I14
I6
I6
tp811
I1
s(I3
I4
I8
tp812
I1
s(I12
I11
I14
tp813
I1
s(I8
I2
I12
tp814
I1
s(I13
I6
I1
tp815
I1
s(I7
I1
I11
tp816
I1
s(I0
I0
I0
tp817
I1
s(I9
I7
I13
tp818
I1
s(I2
I14
I10
tp819
I1
s(I1
I1
I1
tp820
I1
s(I10
I0
I10
tp821
I1
s(I13
I4
I8
tp822
I1
s(I2
I2
I2
tp823
I1
s(I0
I2
I9
tp824
I1
s(I3
I3
I14
tp825
I1
s(I6
I8
I5
tp826
I1
s(I4
I4
I4
tp827
I1
s(I11
I3
I0
tp828
I1
s(I12
I0
I1
tp829
I1
s(I10
I12
I8
tp830
I1
s(I4
I8
I4
tp831
I1
s(I4
I5
I11
tp832
I1
s(I13
I12
I5
tp833
I1
s(I2
I10
I13
tp834
I1
s(I0
I10
I4
tp835
I1
s(I12
I2
I14
tp836
I1
s(I1
I4
I4
tp837
I1
s(I8
I9
I0
tp838
I1
s(I4
I7
I6
tp839
I1
s(I0
I7
I12
tp840
I1
s(I5
I2
I1
tp841
I1
s(I13
I13
I8
tp842
I1
s(I8
I11
I11
tp843
I1
s(I4
I12
I3
tp844
I1
s(I8
I0
I2
tp845
I1
s(I3
I0
I13
tp846
I1
s(I9
I14
I14
tp847
I1
s(I0
I13
I10
tp848
I1
s(I10
I14
I11
tp849
I1
s(I10
I9
I13
tp850
I1
s(I12
I10
I13
tp851
I1
s(I11
I13
I0
tp852
I1
s(I8
I1
I13
tp853
I1
s(I9
I0
I12
tp854
I1
s(I8
I14
I7
tp855
I1
s(I6
I0
I6
tp856
I1
s(I4
I12
I1
tp857
I1
s(I0
I1
I8
tp858
I1
s(I9
I6
I3
tp859
I1
s(I7
I12
I12
tp860
I1
s(I6
I6
I3
tp861
I1
s(I6
I11
I4
tp862
I1
s(I11
I3
I14
tp863
I1
s(I2
I3
I14
tp864
I1
s(I5
I11
I11
tp865
I1
s(I3
I8
I6
tp866
I1
s(I7
I14
I7
tp867
I1
s(I12
I7
I0
tp868
I1
s(I1
I10
I13
tp869
I1
s(I13
I2
I7
tp870
I1
s(I11
I2
I8
tp871
I1
s(I0
I4
I2
tp872
I1
s(I14
I8
I9
tp873
I1
s(I3
I10
I13
tp874
I1
s(I2
I13
I12
tp875
I1
s(I0
I9
I5
tp876
I1
s(I4
I2
I12
tp877
I1
s(I1
I8
I4
tp878
I1
s(I6
I14
I14
tp879
I1
s(I13
I0
I10
tp880
I1
s(I13
I11
I3
tp881
I1
s(I2
I11
I3
tp882
I1
s(I5
I3
I6
tp883
I1
s(I14
I8
I8
tp884
I1
s(I8
I10
I8
tp885
I1
s(I10
I7
I6
tp886
I1
s(I2
I9
I6
tp887
I1
s(I11
I10
I5
tp888
I1
s(I0
I12
I13
tp889
I1
s(I10
I8
I14
tp890
I1
s(I0
I14
I2
tp891
I1
s(I5
I0
I8
tp892
I1
s(I3
I4
I1
tp893
I1
s(I12
I11
I7
tp894
I1
s(I10
I2
I12
tp895
I1
s(I4
I3
I0
tp896
I1
s(I0
I0
I7
tp897
I1
s(I9
I7
I4
tp898
I1
s(I14
I7
I10
tp899
I1
s(I5
I4
I1
tp900
I1
s(I9
I5
I5
tp901
I1
s(I12
I6
I3
tp902
I1
s(I4
I14
I6
tp903
I1
s(I11
I3
I11
tp904
I1
s(I0
I3
I3
tp905
I1
s(I14
I11
I8
tp906
I1
s(I3
I11
I14
tp907
I1
s(I5
I6
I12
tp908
I1
s(I12
I0
I8
tp909
I1
s(I4
I8
I3
tp910
I1
s(I1
I9
I7
tp911
I1
s(I4
I5
I4
tp912
I1
s(I2
I1
I5
tp913
I1
s(I5
I9
I4
tp914
I1
s(I13
I12
I2
tp915
I1
s(I7
I8
I10
tp916
I1
s(I5
I4
I7
tp917
I1
s(I1
I4
I13
tp918
I1
s(I8
I10
I12
tp919
I1
s(I8
I9
I9
tp920
I1
s(I9
I8
I8
tp921
I1
s(I14
I14
I2
tp922
I1
s(I2
I8
I5
tp923
I1
s(I11
I11
I6
tp924
I1
s(I0
I11
I12
tp925
I1
s(I12
I3
I2
tp926
I1
s(I6
I7
I3
tp927
I1
s(I12
I8
I11
tp928
I1
s(I5
I13
I10
tp929
I1
s(I4
I0
I14
tp930
I1
s(I11
I13
I3
tp931
I1
s(I5
I1
I11
tp932
I1
s(I8
I12
I1
tp933
I1
s(I3
I12
I2
tp934
I1
s(I1
I12
I14
tp935
I1
s(I6
I2
I8
tp936
I1
s(I4
I2
I3
tp937
I1
s(I9
I13
I6
tp938
I1
s(I13
I7
I5
tp939
I1
s(I9
I0
I5
tp940
I1
s(I14
I6
I13
tp941
I1
s(I7
I13
I10
tp942
I1
s(I2
I5
I8
tp943
I1
s(I3
I3
I11
tp944
I1
s(I9
I6
I4
tp945
I1
s(I14
I4
I2
tp946
I1
s(I2
I14
I1
tp947
I1
s(I7
I12
I5
tp948
I1
s(I8
I4
I12
tp949
I1
s(I13
I4
I1
tp950
I1
s(I0
I2
I0
tp951
I1
s(I14
I10
I7
tp952
I1
s(I12
I7
I9
tp953
I1
s(I1
I7
I1
tp954
I1
s(I6
I8
I12
tp955
I1
s(I10
I7
I0
tp956
I1
s(I6
I7
I12
tp957
I1
s(I1
I5
I14
tp958
I1
s(I6
I5
I4
tp959
I1
s(I8
I8
I6
tp960
I1
s(I6
I14
I5
tp961
I1
s(I11
I5
I0
tp962
I1
s(I9
I9
I11
tp963
I1
s(I10
I10
I8
tp964
I1
s(I11
I7
I9
tp965
I1
s(I6
I13
I12
tp966
I1
s(I11
I10
I2
tp967
I1
s(I0
I12
I4
tp968
I1
s(I10
I4
I14
tp969
I1
s(I2
I6
I14
tp970
I1
s(I14
I1
I12
tp971
I1
s(I5
I1
I9
tp972
I1
s(I3
I13
I14
tp973
I1
s(I9
I12
I10
tp974
I1
s(I2
I4
I11
tp975
I1
s(I7
I6
I3
tp976
I1
s(I5
I14
I8
tp977
I1
s(I14
I7
I3
tp978
I1
s(I10
I0
I4
tp979
I1
s(I4
I12
I8
tp980
I1
s(I6
I10
I2
tp981
I1
s(I7
I0
I14
tp982
I1
s(I0
I3
I5
tp983
I1
s(I5
I7
I10
tp984
I1
s(I12
I6
I10
tp985
I1
s(I4
I14
I1
tp986
I1
s(I6
I11
I13
tp987
I1
s(I2
I3
I7
tp988
I1
s(I2
I12
I6
tp989
I1
s(I0
I8
I1
tp990
I1
s(I5
I6
I5
tp991
I1
s(I8
I7
I7
tp992
I1
s(I4
I8
I10
tp993
I1
s(I2
I1
I10
tp994
I1
s(I11
I2
I1
tp995
I1
s(I9
I10
I10
tp996
I1
s(I7
I8
I3
tp997
I1
s(I12
I1
I0
tp998
I1
s(I10
I13
I9
tp999
I1
s(I10
I6
I0
tp1000
I1
s(I13
I0
I3
tp1001
I1
s(I0
I6
I6
tp1002
I1
s(I14
I14
I9
tp1003
I1
s(I13
I11
I10
tp1004
I1
s(I0
I11
I5
tp1005
I1
s(I5
I3
I13
tp1006
I1
s(I3
I3
I4
tp1007
I1
s(I6
I1
I11
tp1008
I1
s(I1
I14
I12
tp1009
I1
s(I6
I12
I10
tp1010
I1
s(I13
I9
I7
tp1011
I1
s(I0
I13
I4
tp1012
I1
s(I9
I2
I7
tp1013
I1
s(I8
I12
I8
tp1014
I1
s(I2
I13
I0
tp1015
I1
s(I14
I13
I5
tp1016
I1
s(I2
I7
I10
tp1017
I1
s(I11
I12
I13
tp1018
I1
s(I3
I4
I10
tp1019
I1
s(I12
I11
I12
tp1020
I1
s(I8
I2
I14
tp1021
I1
s(I13
I6
I3
tp1022
I1
s(I3
I6
I1
tp1023
I1
s(I12
I5
I11
tp1024
I1
s(I1
I1
I3
tp1025
I1
s(I7
I1
I6
tp1026
I1
s(I8
I4
I11
tp1027
I1
s(I0
I2
I11
tp1028
I1
s(I10
I14
I13
tp1029
I1
s(I2
I0
I9
tp1030
I1
s(I7
I2
I5
tp1031
I1
s(I14
I11
I1
tp1032
I1
s(I2
I13
I2
tp1033
I1
s(I7
I9
I4
tp1034
I1
s(I12
I0
I7
tp1035
I1
s(I6
I5
I13
tp1036
I1
s(I1
I9
I14
tp1037
I1
s(I13
I1
I0
tp1038
I1
s(I0
I5
I7
tp1039
I1
s(I14
I9
I8
tp1040
I1
s(I7
I11
I5
tp1041
I1
s(I1
I4
I2
tp1042
I1
s(I9
I8
I1
tp1043
I1
s(I13
I10
I6
tp1044
I1
s(I2
I8
I12
tp1045
I1
s(I14
I2
I11
tp1046
I1
s(I14
I3
I14
tp1047
I1
s(I8
I11
I9
tp1048
I1
s(I6
I13
I14
tp1049
I1
s(I3
I12
I3
tp1050
I1
s(I5
I0
I6
tp1051
I1
s(I10
I9
I11
tp1052
I1
s(I6
I3
I9
tp1053
I1
s(I4
I2
I10
tp1054
I1
s(I13
I7
I12
tp1055
I1
s(I7
I6
I8
tp1056
I1
s(I6
I12
I7
tp1057
I1
s(I14
I7
I4
tp1058
I1
s(I7
I13
I1
tp1059
I1
s(I8
I14
I1
tp1060
I1
s(I12
I4
I4
tp1061
I1
s(I1
I2
I2
tp1062
I1
s(I11
I13
I8
tp1063
I1
s(I2
I5
I1
tp1064
I1
s(I0
I1
I10
tp1065
I1
s(I7
I0
I6
tp1066
I1
s(I7
I12
I14
tp1067
I1
s(I1
I0
I9
tp1068
I1
s(I10
I1
I12
tp1069
I1
s(I4
I14
I8
tp1070
I1
s(I6
I11
I6
tp1071
I1
s(I2
I3
I8
tp1072
I1
s(I9
I4
I4
tp1073
I1
s(I14
I10
I14
tp1074
I1
s(I0
I8
I8
tp1075
I1
s(I12
I7
I6
tp1076
I1
s(I6
I4
I14
tp1077
I1
s(I13
I2
I1
tp1078
I1
s(I11
I2
I14
tp1079
I1
s(I3
I10
I3
tp1080
I1
s(I7
I8
I4
tp1081
I1
s(I12
I1
I9
tp1082
I1
s(I4
I9
I6
tp1083
I1
s(I6
I14
I12
tp1084
I1
s(I6
I13
I3
tp1085
I1
s(I3
I12
I14
tp1086
I1
s(I2
I11
I13
tp1087
I1
s(I5
I3
I4
tp1088
I1
s(I4
I11
I13
tp1089
I1
s(I10
I7
I8
tp1090
I1
s(I7
I3
I0
tp1091
I1
s(I2
I9
I4
tp1092
I1
s(I11
I10
I11
tp1093
I1
s(I5
I1
I5
tp1094
I1
s(I5
I1
I2
tp1095
I1
s(I10
I8
I8
tp1096
I1
s(I12
I9
I14
tp1097
I1
s(I6
I2
I6
tp1098
I1
s(I4
I1
I11
tp1099
I1
s(I7
I7
I11
tp1100
I1
s(I0
I14
I12
tp1101
I1
s(I3
I4
I3
tp1102
I1
s(I8
I13
I0
tp1103
I1
s(I7
I14
I11
tp1104
I1
s(I1
I3
I13
tp1105
I1
s(I8
I2
I9
tp1106
I1
s(I11
I3
I10
tp1107
I1
s(I9
I7
I10
tp1108
I1
s(I3
I6
I6
tp1109
I1
s(I1
I1
I10
tp1110
I1
s(I6
I1
I0
tp1111
I1
s(I4
I13
I9
tp1112
I1
s(I9
I5
I7
tp1113
I1
s(I12
I6
I5
tp1114
I1
s(I10
I14
I4
tp1115
I1
s(I4
I4
I9
tp1116
I1
s(I11
I3
I13
tp1117
I1
s(I0
I3
I1
tp1118
I1
s(I13
I14
I9
tp1119
I1
s(I5
I10
I11
tp1120
I1
s(I5
I6
I14
tp1121
I1
s(I12
I0
I14
tp1122
I1
s(I1
I6
I0
tp1123
I1
s(I4
I8
I1
tp1124
I1
s(I13
I1
I11
tp1125
I1
s(I0
I5
I8
tp1126
I1
s(I9
I10
I3
tp1127
I1
s(I13
I12
I0
tp1128
I1
s(I2
I10
I10
tp1129
I1
s(I0
I10
I1
tp1130
I1
s(I14
I2
I8
tp1131
I1
s(I4
I2
I9
tp1132
I1
s(I10
I13
I6
tp1133
I1
s(I8
I9
I11
tp1134
I1
s(I11
I4
I1
tp1135
I1
s(I14
I14
I0
tp1136
I1
s(I2
I8
I7
tp1137
I1
s(I5
I2
I4
tp1138
I1
s(I14
I3
I7
tp1139
I1
s(I6
I13
I7
tp1140
I1
s(I7
I9
I13
tp1141
I1
s(I4
I0
I12
tp1142
I1
s(I10
I12
I1
tp1143
I1
s(I3
I14
I5
tp1144
I1
s(I7
I4
I10
tp1145
I1
s(I12
I10
I6
tp1146
I1
s(I1
I12
I12
tp1147
I1
s(I9
I13
I0
tp1148
I1
s(I2
I7
I3
tp1149
I1
s(I9
I0
I11
tp1150
I1
s(I3
I7
I5
tp1151
I1
s(I8
I14
I8
tp1152
I1
s(I6
I0
I3
tp1153
I1
s(I4
I12
I6
tp1154
I1
s(I5
I13
I11
tp1155
I1
s(I14
I4
I12
tp1156
I1
s(I10
I1
I5
tp1157
I1
s(I1
I11
I7
tp1158
I1
s(I10
I4
I13
tp1159
I1
s(I9
I9
I9
tp1160
I1
s(I11
I0
I12
tp1161
I1
s(I0
I2
I2
tp1162
I1
s(I1
I7
I7
tp1163
I1
s(I3
I13
I5
tp1164
I1
s(I1
I10
I8
tp1165
I1
s(I13
I13
I3
tp1166
I1
s(I11
I9
I6
tp1167
I1
s(I0
I9
I0
tp1168
I1
s(I5
I5
I6
tp1169
I1
s(I1
I5
I8
tp1170
I1
s(I1
I8
I3
tp1171
I1
s(I6
I14
I11
tp1172
I1
s(I14
I9
I1
tp1173
I1
s(I7
I11
I12
tp1174
I1
s(I5
I3
I3
tp1175
I1
s(I6
I12
I14
tp1176
I1
s(I10
I10
I14
tp1177
I1
s(I8
I1
I11
tp1178
I1
s(I6
I12
I4
tp1179
I1
s(I0
I7
I3
tp1180
I1
s(I7
I5
I5
tp1181
I1
s(I0
I12
I10
tp1182
I1
s(I14
I0
I1
tp1183
I1
s(I11
I14
I9
tp1184
I1
s(I8
I3
I0
tp1185
I1
s(I3
I3
I1
tp1186
I1
s(I2
I6
I12
tp1187
I1
s(I9
I1
I8
tp1188
I1
s(I3
I4
I4
tp1189
I1
s(I10
I9
I0
tp1190
I1
s(I8
I13
I9
tp1191
I1
s(I1
I3
I4
tp1192
I1
s(I10
I2
I9
tp1193
I1
s(I9
I12
I8
tp1194
I1
s(I2
I4
I13
tp1195
I1
s(I7
I6
I1
tp1196
I1
s(I5
I14
I10
tp1197
I1
s(I6
I1
I9
tp1198
I1
s(I4
I10
I5
tp1199
I1
s(I11
I1
I3
tp1200
I1
s(I0
I1
I3
tp1201
I1
s(I3
I9
I14
tp1202
I1
s(I5
I7
I8
tp1203
I1
s(I1
I0
I6
tp1204
I1
s(I2
I3
I1
tp1205
I1
s(I0
I3
I14
tp1206
I1
s(I5
I11
I0
tp1207
I1
s(I2
I12
I8
tp1208
I1
s(I2
I1
I8
tp1209
I1
s(I11
I2
I7
tp1210
I1
s(I2
I10
I1
tp1211
I1
s(I7
I8
I13
tp1212
I1
s(I12
I14
I11
tp1213
I1
s(I13
I0
I1
tp1214
I1
s(I11
I4
I10
tp1215
I1
s(I13
I11
I8
tp1216
I1
s(I0
I11
I11
tp1217
I1
s(I14
I3
I0
tp1218
I1
s(I12
I3
I9
tp1219
I1
s(I12
I8
I0
tp1220
I1
s(I1
I14
I14
tp1221
I1
s(I13
I9
I1
tp1222
I1
s(I2
I9
I13
tp1223
I1
s(I6
I7
I6
tp1224
I1
s(I7
I4
I9
tp1225
I1
s(I10
I5
I8
tp1226
I1
s(I4
I2
I4
tp1227
I1
s(I9
I13
I11
tp1228
I1
s(I14
I13
I3
tp1229
I1
s(I2
I7
I12
tp1230
I1
s(I7
I7
I2
tp1231
I1
s(I14
I6
I10
tp1232
I1
s(I5
I11
I7
tp1233
I1
s(I6
I0
I10
tp1234
I1
s(I10
I5
I1
tp1235
I1
s(I11
I14
I2
tp1236
I1
s(I0
I0
I12
tp1237
I1
s(I14
I4
I7
tp1238
I1
s(I7
I12
I0
tp1239
I1
s(I12
I5
I13
tp1240
I1
s(I1
I1
I5
tp1241
I1
s(I4
I13
I2
tp1242
I1
s(I11
I3
I2
tp1243
I1
s(I13
I4
I12
tp1244
I1
s(I8
I10
I2
tp1245
I1
s(I0
I2
I13
tp1246
I1
s(I9
I5
I14
tp1247
I1
s(I6
I7
I0
tp1248
I1
s(I8
I6
I6
tp1249
I1
s(I12
I12
I5
tp1250
I1
s(I1
I10
I1
tp1251
I1
s(I11
I3
I4
tp1252
I1
s(I5
I10
I8
tp1253
I1
s(I14
I11
I3
tp1254
I1
s(I11
I9
I13
tp1255
I1
s(I7
I9
I10
tp1256
I1
s(I10
I12
I12
tp1257
I1
s(I13
I1
I2
tp1258
I1
s(I13
I12
I9
tp1259
I1
s(I7
I11
I7
tp1260
I1
s(I0
I10
I8
tp1261
I1
s(I12
I2
I10
tp1262
I1
s(I1
I4
I0
tp1263
I1
s(I4
I10
I1
tp1264
I1
s(I7
I7
I4
tp1265
I1
s(I4
I7
I10
tp1266
I1
s(I0
I7
I8
tp1267
I1
s(I9
I8
I7
tp1268
I1
s(I13
I10
I0
tp1269
I1
s(I0
I12
I1
tp1270
I1
s(I10
I4
I11
tp1271
I1
s(I11
I6
I1
tp1272
I1
s(I9
I14
I10
tp1273
I1
s(I14
I12
I0
tp1274
I1
s(I2
I6
I3
tp1275
I1
s(I7
I4
I3
tp1276
I1
s(I5
I0
I4
tp1277
I1
s(I12
I10
I9
tp1278
I1
s(I10
I2
I0
tp1279
I1
s(I14
I2
I0
tp1280
I1
s(I7
I7
I13
tp1281
I1
s(I14
I7
I6
tp1282
I1
s(I3
I7
I12
tp1283
I1
s(I4
I9
I11
tp1284
I1
s(I8
I14
I3
tp1285
I1
s(I12
I4
I2
tp1286
I1
s(I2
I5
I7
tp1287
I1
s(I13
I0
I13
tp1288
I1
s(I2
I3
I10
tp1289
I1
s(I11
I0
I5
tp1290
I1
s(I9
I4
I2
tp1291
I1
s(I14
I10
I12
tp1292
I1
s(I2
I12
I3
tp1293
I1
s(I0
I8
I6
tp1294
I1
s(I12
I7
I4
tp1295
I1
s(I0
I6
I12
tp1296
I1
s(I13
I2
I3
tp1297
I1
s(I11
I2
I12
tp1298
I1
s(I14
I8
I13
tp1299
I1
s(I3
I10
I1
tp1300
I1
s(I7
I8
I6
tp1301
I1
s(I1
I5
I3
tp1302
I1
s(I4
I9
I0
tp1303
I1
s(I12
I14
I2
tp1304
I1
s(I11
I10
I4
tp1305
I1
s(I4
I6
I9
tp1306
I1
s(I0
I6
I11
tp1307
I1
s(I5
I8
I3
tp1308
I1
s(I13
I11
I7
tp1309
I1
s(I7
I11
I8
tp1310
I1
s(I9
I3
I13
tp1311
I1
s(I5
I3
I10
tp1312
I1
s(I12
I3
I14
tp1313
I1
s(I10
I10
I5
tp1314
I1
s(I4
I11
I11
tp1315
I1
s(I1
I14
I7
tp1316
I1
s(I10
I7
I10
tp1317
I1
s(I4
I0
I2
tp1318
I1
s(I2
I9
I2
tp1319
I1
s(I11
I10
I9
tp1320
I1
s(I9
I2
I2
tp1321
I1
s(I14
I0
I8
tp1322
I1
s(I10
I8
I10
tp1323
I1
s(I6
I2
I4
tp1324
I1
s(I14
I13
I8
tp1325
I1
s(I13
I8
I11
tp1326
I1
s(I11
I12
I0
tp1327
I1
s(I0
I14
I14
tp1328
I1
s(I3
I4
I13
tp1329
I1
s(I7
I10
I3
tp1330
I1
s(I8
I13
I2
tp1331
I1
s(I12
I11
I3
tp1332
I1
s(I9
I1
I4
tp1333
I1
s(I9
I12
I1
tp1334
I1
s(I13
I6
I14
tp1335
I1
s(I0
I0
I3
tp1336
I1
s(I9
I7
I8
tp1337
I1
s(I3
I6
I4
tp1338
I1
s(I6
I6
I9
tp1339
I1
s(I1
I1
I12
tp1340
I1
s(I10
I0
I9
tp1341
I1
s(I8
I4
I0
tp1342
I1
s(I2
I2
I13
tp1343
I1
s(I7
I0
I1
tp1344
I1
s(I5
I12
I14
tp1345
I1
s(I14
I5
I13
tp1346
I1
s(I12
I6
I7
tp1347
I1
s(I9
I5
I1
tp1348
I1
s(I0
I3
I7
tp1349
I1
s(I14
I11
I12
tp1350
I1
s(I13
I14
I11
tp1351
I1
s(I1
I6
I2
tp1352
I1
s(I12
I13
I3
tp1353
I1
s(I7
I7
I12
tp1354
I1
s(I4
I5
I8
tp1355
I1
s(I9
I6
I1
tp1356
I1
s(I13
I12
I6
tp1357
I1
s(I2
I10
I8
tp1358
I1
s(I0
I10
I3
tp1359
I1
s(I5
I4
I11
tp1360
I1
s(I11
I1
I1
tp1361
I1
s(I1
I4
I9
tp1362
I1
s(I10
I13
I4
tp1363
I1
s(I4
I10
I8
tp1364
I1
s(I6
I11
I11
tp1365
I1
s(I7
I10
I13
tp1366
I1
s(I10
I11
I11
tp1367
I1
s(I8
I0
I5
tp1368
I1
s(I11
I6
I6
tp1369
I1
s(I14
I12
I11
tp1370
I1
s(I13
I9
I8
tp1371
I1
s(I11
I13
I7
tp1372
I1
s(I8
I12
I5
tp1373
I1
s(I12
I10
I0
tp1374
I1
s(I1
I12
I10
tp1375
I1
s(I3
I11
I4
tp1376
I1
s(I8
I1
I10
tp1377
I1
s(I13
I7
I1
tp1378
I1
s(I0
I8
I3
tp1379
I1
s(I6
I0
I5
tp1380
I1
s(I8
I3
I1
tp1381
I1
s(I2
I5
I12
tp1382
I1
s(I11
I14
I11
tp1383
I1
s(I9
I6
I0
tp1384
I1
s(I14
I4
I14
tp1385
I1
s(I10
I1
I3
tp1386
I1
s(I1
I11
I5
tp1387
I1
s(I13
I4
I5
tp1388
I1
s(I7
I3
I11
tp1389
I1
s(I14
I10
I3
tp1390
I1
s(I12
I7
I13
tp1391
I1
s(I8
I6
I9
tp1392
I1
s(I7
I3
I3
tp1393
I1
s(I2
I0
I2
tp1394
I1
s(I0
I4
I13
tp1395
I1
s(I9
I11
I10
tp1396
I1
s(I3
I10
I14
tp1397
I1
s(I2
I13
I9
tp1398
I1
s(I0
I9
I2
tp1399
I1
s(I1
I5
I10
tp1400
I1
s(I4
I9
I9
tp1401
I1
s(I10
I6
I12
tp1402
I1
s(I4
I6
I0
tp1403
I1
s(I5
I8
I8
tp1404
I1
s(I14
I9
I7
tp1405
I1
s(I2
I11
I0
tp1406
I1
s(I7
I11
I14
tp1407
I1
s(I5
I3
I1
tp1408
I1
s(I10
I10
I12
tp1409
I1
s(I11
I12
I8
tp1410
I1
s(I6
I12
I6
tp1411
I1
s(I13
I10
I9
tp1412
I1
s(I7
I5
I3
tp1413
I1
s(I3
I2
I11
tp1414
I1
s(I12
I9
I1
tp1415
I1
s(I1
I13
I9
tp1416
I1
s(I13
I8
I0
tp1417
I1
s(I2
I6
I10
tp1418
I1
s(I5
I0
I13
tp1419
I1
s(I3
I4
I6
tp1420
I1
s(I8
I8
I5
tp1421
I1
s(I8
I13
I11
tp1422
I1
s(I1
I3
I2
tp1423
I1
s(I4
I3
I5
tp1424
I1
s(I7
I6
I7
tp1425
I1
s(I5
I14
I12
tp1426
I1
s(I13
I5
I6
tp1427
I1
s(I7
I0
I10
tp1428
I1
s(I14
I5
I2
tp1429
I1
s(I8
I9
I13
tp1430
I1
s(I1
I0
I4
tp1431
I1
s(I13
I3
I3
tp1432
I1
s(I0
I3
I12
tp1433
I1
s(I5
I11
I6
tp1434
I1
s(I13
I14
I4
tp1435
I1
s(I5
I6
I9
tp1436
I1
s(I12
I0
I11
tp1437
I1
s(I6
I4
I3
tp1438
I1
s(I4
I8
I14
tp1439
I1
s(I1
I9
I2
tp1440
I1
s(I13
I1
I12
tp1441
I1
s(I11
I2
I5
tp1442
I1
s(I3
I0
I14
tp1443
I1
s(I14
I2
I13
tp1444
I1
s(I10
I13
I13
tp1445
I1
s(I12
I14
I13
tp1446
I1
s(I11
I4
I4
tp1447
I1
s(I14
I14
I13
tp1448
I1
s(I13
I11
I14
tp1449
I1
s(I11
I11
I5
tp1450
I1
s(I0
I11
I9
tp1451
I1
s(I14
I3
I2
tp1452
I1
s(I12
I3
I7
tp1453
I1
s(I8
I10
I7
tp1454
I1
s(I12
I8
I6
tp1455
I1
s(I1
I14
I8
tp1456
I1
s(I8
I0
I12
tp1457
I1
s(I4
I0
I9
tp1458
I1
s(I7
I11
I1
tp1459
I1
s(I10
I1
I1
tp1460
I1
s(I13
I9
I3
tp1461
I1
s(I2
I9
I11
tp1462
I1
s(I9
I2
I11
tp1463
I1
s(I8
I12
I12
tp1464
I1
s(I1
I12
I3
tp1465
I1
s(I6
I2
I11
tp1466
I1
s(I8
I1
I3
tp1467
I1
s(I12
I3
I13
tp1468
I1
s(I11
I12
I9
tp1469
I1
s(I9
I0
I6
tp1470
I1
s(I4
I10
I0
tp1471
I1
s(I7
I1
I13
tp1472
I1
s(I0
I0
I10
tp1473
I1
s(I14
I4
I1
tp1474
I1
s(I3
I6
I13
tp1475
I1
s(I7
I12
I2
tp1476
I1
s(I1
I1
I7
tp1477
I1
s(I4
I13
I4
tp1478
I1
s(I13
I4
I2
tp1479
I1
s(I5
I12
I7
tp1480
I1
s(I6
I7
I2
tp1481
I1
s(I1
I10
I3
tp1482
I1
s(I6
I8
I11
tp1483
I1
s(I13
I2
I13
tp1484
I1
s(I2
I0
I5
tp1485
I1
s(I7
I2
I1
tp1486
I1
s(I2
I13
I6
tp1487
I1
s(I7
I9
I8
tp1488
I1
s(I6
I5
I9
tp1489
I1
s(I12
I13
I12
tp1490
I1
s(I3
I14
I14
tp1491
I1
s(I11
I8
I4
tp1492
I1
s(I10
I10
I11
tp1493
I1
s(I11
I7
I12
tp1494
I1
s(I0
I7
I6
tp1495
I1
s(I13
I10
I2
tp1496
I1
s(I3
I2
I0
tp1497
I1
s(I5
I11
I9
tp1498
I1
s(I8
I11
I13
tp1499
I1
s(I6
I13
I10
tp1500
I1
s(I9
I14
I4
tp1501
I1
s(I11
I13
I14
tp1502
I1
s(I5
I0
I2
tp1503
I1
s(I10
I9
I7
tp1504
I1
s(I8
I13
I12
tp1505
I1
s(I7
I14
I5
tp1506
I1
s(I6
I3
I13
tp1507
I1
s(I7
I6
I12
tp1508
I1
s(I3
I7
I14
tp1509
I1
s(I1
I2
I6
tp1510
I1
s(I8
I3
I14
tp1511
I1
s(I6
I2
I1
tp1512
I1
s(I2
I5
I5
tp1513
I1
s(I0
I1
I14
tp1514
I1
s(I5
I13
I4
tp1515
I1
s(I5
I7
I13
tp1516
I1
s(I12
I6
I9
tp1517
I1
s(I10
I1
I8
tp1518
I1
s(I8
I5
I1
tp1519
I1
s(I2
I3
I4
tp1520
I1
s(I7
I3
I2
tp1521
I1
s(I5
I11
I13
tp1522
I1
s(I0
I8
I4
tp1523
I1
s(I5
I6
I2
tp1524
I1
s(I1
I6
I12
tp1525
I1
s(I6
I4
I10
tp1526
I1
s(I6
I9
I1
tp1527
I1
s(I11
I2
I2
tp1528
I1
s(I13
I13
I12
tp1529
I1
s(I7
I8
I0
tp1530
I1
s(I0
I9
I11
tp1531
I1
s(I11
I12
I3
tp1532
I1
s(I1
I8
I14
tp1533
I1
s(I4
I6
I11
tp1534
I1
s(I0
I6
I5
tp1535
I1
s(I5
I8
I1
tp1536
I1
s(I3
I12
I10
tp1537
I1
s(I3
I12
I8
tp1538
I1
s(I3
I3
I3
tp1539
I1
s(I1
I14
I1
tp1540
I1
s(I10
I2
I10
tp1541
I1
s(I2
I9
I0
tp1542
I1
s(I7
I5
I10
tp1543
I1
s(I14
I0
I10
tp1544
I1
s(I4
I6
I5
tp1545
I1
s(I13
I8
I9
tp1546
I1
s(I11
I12
I2
tp1547
I1
s(I0
I14
I8
tp1548
I1
s(I14
I6
I7
tp1549
I1
s(I8
I2
I13
tp1550
I1
s(I13
I6
I0
tp1551
I1
s(I2
I4
I6
tp1552
I1
s(I2
I14
I11
tp1553
I1
s(I4
I3
I11
tp1554
I1
s(I8
I8
I13
tp1555
I1
s(I11
I5
I12
tp1556
I1
s(I10
I0
I11
tp1557
I1
s(I4
I13
I13
tp1558
I1
s(I13
I4
I11
tp1559
I1
s(I10
I3
I8
tp1560
I1
s(I2
I0
I12
tp1561
I1
s(I11
I3
I1
tp1562
I1
s(I11
I8
I3
tp1563
I1
s(I14
I11
I14
tp1564
I1
s(I13
I14
I13
tp1565
I1
s(I7
I9
I7
tp1566
I1
s(I12
I0
I2
tp1567
I1
s(I8
I7
I8
tp1568
I1
s(I0
I5
I4
tp1569
I1
s(I9
I10
I7
tp1570
I1
s(I3
I13
I13
tp1571
I1
s(I2
I10
I14
tp1572
I1
s(I0
I10
I5
tp1573
I1
s(I14
I2
I4
tp1574
I1
s(I3
I0
I2
tp1575
I1
s(I1
I4
I7
tp1576
I1
s(I4
I7
I1
tp1577
I1
s(I14
I14
I4
tp1578
I1
s(I7
I10
I11
tp1579
I1
s(I5
I2
I0
tp1580
I1
s(I14
I3
I11
tp1581
I1
s(I8
I11
I10
tp1582
I1
s(I10
I4
I4
tp1583
I1
s(I11
I6
I4
tp1584
I1
s(I14
I12
I5
tp1585
I1
s(I3
I14
I1
tp1586
I1
s(I10
I9
I12
tp1587
I1
s(I6
I1
I5
tp1588
I1
s(I8
I1
I12
tp1589
I1
s(I2
I14
I4
tp1590
I1
s(I3
I7
I1
tp1591
I1
s(I12
I4
I7
tp1592
I1
s(I6
I0
I7
tp1593
I1
s(I4
I12
I2
tp1594
I1
s(I7
I1
I4
tp1595
I1
s(I6
I6
I12
tp1596
I1
s(I1
I11
I3
tp1597
I1
s(I6
I11
I3
tp1598
I1
s(I2
I3
I13
tp1599
I1
s(I11
I0
I0
tp1600
I1
s(I3
I8
I5
tp1601
I1
s(I6
I4
I13
tp1602
I1
s(I8
I6
I11
tp1603
I1
s(I1
I10
I12
tp1604
I1
s(I13
I2
I6
tp1605
I1
s(I0
I4
I3
tp1606
I1
s(I5
I10
I3
tp1607
I1
s(I13
I13
I7
tp1608
I1
s(I11
I9
I2
tp1609
I1
s(I0
I9
I4
tp1610
I1
s(I5
I5
I10
tp1611
I1
s(I12
I1
I14
tp1612
I1
s(I1
I5
I4
tp1613
I1
s(I8
I8
I0
tp1614
I1
s(I9
I4
I6
tp1615
I1
s(I1
I8
I7
tp1616
I1
s(I4
I14
I0
tp1617
I1
s(I11
I0
I14
tp1618
I1
s(I5
I8
I6
tp1619
I1
s(I14
I9
I5
tp1620
I1
s(I2
I11
I2
tp1621
I1
s(I11
I8
I13
tp1622
I1
s(I10
I10
I2
tp1623
I1
s(I7
I5
I1
tp1624
I1
s(I3
I2
I9
tp1625
I1
s(I12
I9
I3
tp1626
I1
s(I13
I8
I14
tp1627
I1
s(I2
I6
I8
tp1628
I1
s(I9
I2
I13
tp1629
I1
s(I12
I11
I6
tp1630
I1
s(I1
I3
I0
tp1631
I1
s(I6
I3
I6
tp1632
I1
s(I3
I11
I8
tp1633
I1
s(I9
I7
I5
tp1634
I1
s(I14
I7
I9
tp1635
I1
s(I10
I0
I2
tp1636
I1
s(I7
I0
I4
tp1637
I1
s(I3
I9
I10
tp1638
I1
s(I5
I7
I4
tp1639
I1
s(I10
I14
I7
tp1640
I1
s(I4
I14
I7
tp1641
I1
s(I13
I3
I1
tp1642
I1
s(I11
I3
I8
tp1643
I1
s(I5
I11
I4
tp1644
I1
s(I5
I6
I11
tp1645
I1
s(I12
I0
I9
tp1646
I1
s(I8
I7
I4
tp1647
I1
s(I8
I7
I1
tp1648
I1
s(I9
I10
I0
tp1649
I1
s(I2
I10
I5
tp1650
I1
s(I5
I4
I6
tp1651
I1
s(I7
I2
I14
tp1652
I1
s(I10
I13
I3
tp1653
I1
s(I11
I4
I6
tp1654
I1
s(I13
I11
I12
tp1655
I1
s(I12
I3
I5
tp1656
I1
s(I10
I11
I14
tp1657
I1
s(I8
I7
I9
tp1658
I1
s(I1
I14
I10
tp1659
I1
s(I13
I9
I13
tp1660
I1
s(I12
I11
I5
tp1661
I1
s(I0
I13
I2
tp1662
I1
s(I5
I1
I8
tp1663
I1
s(I14
I6
I14
tp1664
I1
s(I12
I10
I5
tp1665
I1
s(I10
I5
I12
tp1666
I1
s(I4
I2
I0
tp1667
I1
s(I9
I13
I7
tp1668
I1
s(I13
I7
I6
tp1669
I1
s(I2
I7
I0
tp1670
I1
s(I7
I7
I6
tp1671
I1
s(I4
I3
I14
tp1672
I1
s(I7
I13
I11
tp1673
I1
s(I8
I8
I2
tp1674
I1
s(lp1675
I00
aI00
aI00
aI00
aI00
aI00
aI00
aI00
aI00
aI01
aI00
aI00
aI00
aI00
aI00
aI00
aI00
aI00
aI00
aI00
aI00
aI01
aI01
aI00
aI00
aI00
aI00
aI01
aI00
aI00
aI00
aI00
aI00
aI00
aI00
aI01
aI00
aI00
aI00
aI00
aI00
aI00
aI00
aI00
aI00
aI00
aI00
aI00
aI00
aI00
aI00
aI00
aI00
aI00
aI00
aI00
aI00
aI00
aI00
aI00
aI00
aI00
aI00
aI00
aI00
aI00
aI00
aI00
aI00
aI00
aI00
aI00
aI00
aI00
aI01
aI00
aI00
aI00
aI00
aI00
aI00
aI00
aI00
aI00
aI00
aI00
aI00
aI00
aI00
aI01
aI00
aI00
aI01
aI00
aI00
aI00
aI00
aI00
aI00
aI00
aI01
aI00
aI00
aI01
aI00
aI00
aI00
aI00
aI01
aI00
aI00
aI00
aI00
aI00
aI00
aI00
aI00
aI00
aI00
aI01
aI00
aI00
aI00
aI00
aI00
aI00
aI00
aI01
aI00
aI01
aI00
aI00
aI00
aI00
aI00
aI00
aI00
aI00
aI00
aI00
aI00
aI00
aI01
aI00
aI00
aI00
aI00
aI00
aI00
aI00
aI00
aI00
aI00
aI00
aI00
aI00
aI01
aI00
aI00
aI00
aI00
aI00
aI00
aI00
aI00
aI00
aI01
aI00
aI01
aI00
aI00
aI01
aI00
aI00
aI01
aI01
aI00
aI01
aI00
aI00
aI01
aI00
aI00
aI00
aI01
aI00
aI00
aI00
aI00
aI01
aI01
aI00
aI00
aI00
aI00
aI00
aI00
aI00
aI00
aI00
aI00
aI01
aI00
aI00
aI00
aI00
aI01
aI01
aI01
aI00
aI01
aI00
aI01
aI00
aI00
aI01
aI00
aI00
aI00
aI00
aI00
aI00
aI00
aI00
aI00
aI00
aI00
aI01
aI00
aI00
aI01
aI01
aI01
aI00
aI00
aI00
aI01
aI00
aI00
aI00
aI00
aI00
aI01
aI00
aI01
aI00
aI00
aI00
aI00
aI00
aI00
aI00
aI00
aI00
aI00
aI00
aI00
aI01
aI00
aI00
aI00
aI00
aI00
aI00
aI00
aI00
aI00
aI00
aI00
aI00
aI00
aI00
aI00
aI00
aI01
aI00
aI00
aI00
aI00
aI01
aI00
aI00
aI00
aI00
aI00
aI00
aI00
aI00
aI00
aI00
aI00
aI00
aI00
aI01
aI00
aI00
aI00
aI01
aI00
aI00
aI00
aI00
aI00
aI00
aI01
aI00
aI00
aI01
aI01
aI01
aI00
aI00
aI00
aI00
aI00
aI00
aI00
aI00
aI00
aI01
aI01
aI00
aI00
aI01
aI00
aI00
aI01
aI01
aI00
aI00
aI00
aI00
aI00
aI00
aI00
aI00
aI00
aI00
aI00
aI00
aI00
aI00
aI00
aI00
aI00
aI00
aI00
aI01
aI00
aI00
aI00
aI01
aI00
aI00
aI01
aI00
aI00
aI00
aI00
aI01
aI00
aI00
aI01
aI01
aI00
aI00
aI00
aI00
aI00
aI00
aI00
aI00
aI00
aI00
aI00
aI00
aI00
aI00
aI00
aI01
aI00
aI00
aI00
aI00
aI00
aI00
aI00
aI00
aI01
aI01
aI00
aI00
aI00
aI01
aI00
aI00
aI00
aI00
aI00
aI01
aI00
aI00
aI00
aI00
aI00
aI00
aI00
aI00
aI00
aI00
aI01
aI01
aI00
aI01
aI00
aI01
aI00
aI00
aI00
aI01
aI00
aI00
aI00
aI00
aI00
aI01
aI00
aI00
aI00
aI00
aI00
aI00
aI00
aI00
aI00
aI00
aI01
aI00
aI00
aI01
aI00
aI00
aI00
aI00
aI00
aI00
aI00
aI00
aI00
aI00
aI00
aI00
aI01
aI01
aI01
aI00
aI01
aI01
aI00
aI00
aI00
aI00
aI00
aI00
aI00
aI00
aI00
aI00
aI00
aI00
aI00
aI01
aI00
aI00
aI00
aI00
aI00
aI01
aI00
aI00
aI00
aI00
aI00
aI00
aI00
aI00
aI00
aI01
aI00
aI00
aI00
aI00
aI00
aI00
aI00
aI00
aI00
aI01
aI00
aI00
aI00
aI00
aI01
aI00
aI00
aI01
aI01
aI00
aI00
aI00
aI00
aI00
aI01
aI01
aI00
aI01
aI00
aI00
aI00
aI00
aI00
aI01
aI00
aI00
aI01
aI01
aI00
aI00
aI00
aI01
aI01
aI00
aI00
aI00
aI00
aI00
aI00
aI00
aI01
aI00
aI00
aI00
aI00
aI00
aI00
aI00
aI01
aI01
aI00
aI00
aI00
aI00
aI00
aI00
aI00
aI00
aI00
aI00
aI00
aI00
aI01
aI00
aI00
aI00
aI01
aI00
aI00
aI00
aI00
aI00
aI01
aI01
aI00
aI01
aI00
aI00
aI00
aI01
aI00
aI01
aI00
aI00
aI00
aI00
aI00
aI00
aI00
aI00
aI00
aI00
aI00
aI01
aI00
aI00
aI00
aI00
aI00
aI01
aI01
aI00
aI00
aI00
aI00
aI00
aI01
aI00
aI01
aI00
aI00
aI00
aI01
aI00
aI00
aI01
aI00
aI01
aI00
aI00
aI01
aI01
aI00
aI00
aI00
aI00
aI00
aI00
aI00
aI00
aI00
aI00
aI00
aI00
aI01
aI00
aI01
aI01
aI01
aI00
aI01
aI00
aI00
aI00
aI01
aI00
aI00
aI00
aI01
aI00
aI00
aI00
aI00
aI00
aI01
aI01
aI00
aI00
aI01
aI00
aI00
aI00
aI00
aI00
aI00
aI00
aI01
aI00
aI01
aI00
aI01
aI00
aI00
aI00
aI00
aI00
aI00
aI00
aI00
aI00
aI01
aI00
aI01
aI00
aI00
aI00
aI00
aI00
aI00
aI00
aI00
aI01
aI00
aI00
aI00
aI00
aI00
aI00
aI00
aI00
aI00
aI00
aI00
aI00
aI00
aI00
aI00
aI00
aI01
aI00
aI01
aI00
aI00
aI01
aI00
aI00
aI00
aI00
aI01
aI00
aI00
aI00
aI00
aI01
aI00
aI00
aI00
aI01
aI00
aI00
aI00
aI00
aI00
aI00
aI00
aI00
aI00
aI00
aI00
aI00
aI00
aI01
aI01
aI00
aI01
aI00
aI00
aI00
aI00
aI00
aI01
aI01
aI00
aI01
aI00
aI00
aI01
aI00
aI00
aI00
aI00
aI00
aI00
aI00
aI00
aI00
aI00
aI00
aI00
aI01
aI01
aI01
aI00
aI00
aI00
aI00
aI00
aI00
aI00
aI00
aI00
aI00
aI01
aI01
aI01
aI00
aI00
aI00
aI01
aI00
aI00
aI00
aI00
aI01
aI00
aI00
aI00
aI00
aI00
aI00
aI00
aI00
aI00
aI01
aI00
aI00
aI00
aI00
aI00
aI01
aI00
aI00
aI00
aI00
aI00
aI00
aI00
aI01
aI00
aI00
aI00
aI00
aI00
aI00
aI00
aI00
aI00
aI01
aI00
aI00
aI00
aI00
aI00
aI00
aI00
aI00
aI00
aI00
aI01
aI00
aI00
aI00
aI00
aI01
aI00
aI00
aI00
aI00
aI00
aI00
aI00
aI00
aI00
aI00
aI00
aI00
aI01
aI00
aI00
aI01
aI00
aI00
aI00
aI00
aI01
aI00
aI00
aI00
aI00
aI01
aI00
aI00
aI00
aI00
aI00
aI00
aI00
aI00
aI00
aI01
aI00
aI00
aI00
aI00
aI01
aI00
aI01
aI00
aI00
aI01
aI00
aI01
aI00
aI00
aI00
aI00
aI00
aI00
aI00
aI00
aI00
aI00
aI00
aI01
aI00
aI00
aI00
aI00
aI00
aI00
aI00
aI00
aI01
aI00
aI00
aI00
aI01
aI00
aI00
aI01
aI01
aI00
aI01
aI00
aI00
aI00
aI00
aI00
aI00
aI00
aI01
aI00
aI00
aI00
aI01
aI00
aI00
aI00
aI01
aI00
aI00
aI00
aI00
aI00
aI00
aI00
aI00
aI01
aI00
aI01
aI00
aI01
aI00
aI00
aI00
aI00
aI00
aI01
aI00
aI01
aI00
aI01
aI00
aI00
aI00
aI00
aI00
aI00
aI00
aI00
aI00
aI00
aI00
aI00
aI00
aI01
aI00
aI00
aI00
aI00
aI00
aI00
aI00
aI00
aI00
aI01
aI00
aI00
aI00
aI00
aI00
aI01
aI01
aI00
aI00
aI00
aI00
aI00
aI01
aI00
aI00
aI00
aI00
aI00
aI00
aI01
aI00
aI00
aI00
aI01
aI00
aI00
aI00
aI00
aI00
aI00
aI00
aI00
aI00
aI00
aI00
aI01
aI00
aI00
aI00
aI00
aI00
aI00
aI00
aI00
aI01
aI00
aI01
aI00
aI00
aI00
aI00
aI01
aI00
aI00
aI01
aI01
aI00
aI00
aI00
aI01
aI01
aI00
aI00
aI00
aI00
aI00
aI00
aI00
aI01
aI00
aI00
aI00
aI00
aI00
aI00
aI00
aI01
aI01
aI00
aI00
aI01
aI00
aI01
aI00
aI00
aI00
aI00
aI00
aI01
aI00
aI00
aI00
aI01
aI00
aI00
aI00
aI00
aI00
aI00
aI00
aI00
aI00
aI00
aI00
aI00
aI00
aI01
aI00
aI00
aI00
aI00
aI00
aI00
aI00
aI00
aI00
aI00
aI00
aI00
aI00
aI01
aI00
aI00
aI01
aI00
aI00
aI00
aI00
aI00
aI00
aI00
aI01
aI01
aI01
aI00
aI00
aI00
aI00
aI00
aI00
aI00
aI00
aI00
aI00
aI00
aI00
aI00
aI01
aI00
aI00
aI00
aI01
aI00
aI00
aI01
aI00
aI01
aI00
aI00
aI01
aI00
aI00
aI00
aI00
aI00
aI00
aI00
aI00
aI01
aI00
aI00
aI01
aI00
aI00
aI00
aI00
aI00
aI01
aI00
aI00
aI00
aI00
aI00
aI00
aI01
aI01
aI00
aI01
aI00
aI01
aI00
aI00
aI00
aI00
aI01
aI00
aI00
aI00
aI01
aI00
aI00
aI00
aI01
aI00
aI00
aI00
aI00
aI01
aI00
aI00
aI01
aI00
aI01
aI00
aI00
aI00
aI01
aI01
aI00
aI00
aI00
aI00
aI00
aI00
aI00
aI00
aI00
aI00
aI00
aI01
aI01
aI00
aI00
aI01
aI00
aI00
aI01
aI00
aI00
aI00
aI01
aI00
aI00
aI00
aI00
aI00
aI00
aI00
aI00
aI00
aI00
aI00
aI00
aI01
aI00
aI00
aI01
aI00
aI00
aI00
aI00
aI00
aI01
aI00
aI01
aI00
aI00
aI00
aI00
aI00
aI00
aI00
aI00
aI00
aI00
aI00
aI00
aI00
aI00
aI00
aI00
aI00
aI00
aI00
aI00
aI00
aI00
aI00
aI00
aI00
aI01
aI00
aI00
aI00
aI01
aI00
aI00
aI00
aI00
aI00
aI00
aI00
aI00
aI00
aI00
aI00
aI01
aI01
aI00
aI01
aI00
aI00
aI00
aI00
aI00
aI00
aI00
aI01
aI00
aI00
aI00
aI00
aI00
aI00
aI00
aI00
aI00
aI01
aI00
aI01
aI00
aI00
aI00
aI00
aI00
aI00
aI00
aI00
aI01
aI00
aI00
aI01
aI00
aI01
aI01
aI00
aI00
aI00
aI00
aI00
aI00
aI00
aI00
aI00
aI01
aI00
aI00
aI00
aI00
aI00
aI00
aI00
aI00
aI00
aI00
aI00
aI00
aI00
aI01
aI00
aI00
aI00
aI00
aI01
aI00
aI00
aI00
aI01
aI00
aI00
aI00
aI00
aI00
aI00
aI00
aI00
aI00
aI00
aI00
aI00
aI00
aI00
aI01
aI00
aI00
aI00
aI00
aI00
aI00
aI00
aI00
aI00
aI00
aI00
aI00
aI00
aI00
aI00
aI00
aI00
aI00
aI00
aI00
aI00
aI00
aI00
aI01
aI01
aI00
aI00
aI00
aI00
aI00
aI01
aI00
aI00
aI00
aI00
aI00
aI00
aI00
aI00
aI00
aI00
aI00
aI00
aI00
aI00
aI00
aI00
aI00
aI00
aI00
aI00
aI00
aI00
aI00
aI00
aI00
aI00
aI00
aI00
aI00
aI00
aI00
aI00
aI00
aI00
aI01
aI00
aI00
aI01
aI00
aI00
aI01
aI01
aI00
aI00
aI00
aI00
aI00
aI00
aI00
aI01
aI00
aI00
aI01
aI00
aI01
aI00
aI00
aI00
aI00
aI00
aI00
aI00
aI00
aI00
aI00
aI00
aI01
aI00
aI00
aI00
aI00
aI00
aI00
aI00
aI01
aI00
aI00
aI00
aI01
aI00
aI00
aI00
aI00
aI00
aI01
aI00
aI00
aI01
aI00
aI00
aI00
aI00
aI01
aI01
aI00
aI01
aI00
aI00
aI01
aI00
aI01
aI00
aI00
aI00
aI00
aI00
aI00
aI00
aI00
aI00
aI00
aI00
aI00
aI00
aI01
aI00
aI00
aI00
aI01
aI00
aI00
aI00
aI00
aI01
aI01
aI00
aI00
aI00
aI00
aI00
aI00
aI01
aI00
aI00
aI00
aI01
aI00
aI00
aI00
aI00
aI00
aI00
aI00
aI01
aI00
aI00
aI00
aI00
aI00
aI01
aI00
aI00
aI00
aI00
aI00
aI00
aI00
aI01
aI00
aI01
aI00
aI00
aI01
aI00
aI00
aI00
aI01
aI00
aI01
aI00
aI00
aI00
aI00
aI00
aI00
aI01
aI00
aI00
aI01
aI00
aI00
aI00
aI01
aI00
aI00
aI01
aI00
aI00
aI00
aI00
aI00
aI00
aI00
aI00
aI00
aI00
aI00
aI01
aI00
aI00
aI00
aI00
aI00
aI01
aI00
aI00
aI00
aI00
aI01
aI00
aI00
aI01
aI00
aI00
aI00
aI00
aI00
aI01
aI00
aI00
aI00
aI00
aI00
aI00
aI00
aI00
aI00
aI00
aI00
aI00
aS'100'
p1676
tp1677
.