((dp0
(I0
I5
I5
tp1
I1
s(I7
I2
I0
tp2
I1
s(I8
I0
I6
tp3
I1
s(I0
I0
I8
tp4
I1
s(I8
I5
I9
tp5
I1
s(I9
I8
I3
tp6
I1
s(I2
I8
I2
tp7
I1
s(I5
I2
I1
tp8
I1
s(I2
I7
I4
tp9
I1
s(I3
I7
I4
tp10
I1
s(I8
I0
I2
tp11
I1
s(I8
I3
I0
tp12
I1
s(I2
I6
I7
tp13
I1
s(I2
I2
I2
tp14
I1
s(I1
I4
I0
tp15
I1
s(I8
I9
I4
tp16
I1
s(I9
I6
I7
tp17
I1
s(I2
I0
I7
tp18
I1
s(I5
I2
I7
tp19
I1
s(I3
I1
I4
tp20
I1
s(I6
I5
I7
tp21
I1
s(I8
I8
I7
tp22
I1
s(I3
I7
I0
tp23
I1
s(I1
I2
I0
tp24
I1
s(I4
I5
I3
tp25
I1
s(I8
I3
I4
tp26
I1
s(I1
I7
I6
tp27
I1
s(I2
I6
I3
tp28
I1
s(I5
I0
I4
tp29
I1
s(I2
I5
I3
tp30
I1
s(I0
I1
I8
tp31
I1
s(I9
I6
I3
tp32
I1
s(I9
I5
I3
tp33
I1
s(I6
I6
I3
tp34
I1
s(I5
I2
I9
tp35
I1
s(I8
I8
I3
tp36
I1
s(I4
I6
I1
tp37
I1
s(I8
I8
I0
tp38
I1
s(I3
I8
I6
tp39
I1
s(I4
I1
I1
tp40
I1
s(I1
I2
I4
tp41
I1
s(I8
I3
I8
tp42
I1
s(I7
I4
I7
tp43
I1
s(I9
I1
I7
tp44
I1
s(I3
I3
I2
tp45
I1
s(I0
I7
I0
tp46
I1
s(I6
I6
I7
tp47
I1
s(I7
I5
I4
tp48
I1
s(I2
I4
I8
tp49
I1
s(I7
I6
I2
tp50
I1
s(I1
I8
I4
tp51
I1
s(I4
I6
I5
tp52
I1
s(I5
I8
I7
tp53
I1
s(I5
I6
I0
tp54
I1
s(I5
I3
I6
tp55
I1
s(I3
I4
I5
tp56
I1
s(I0
I1
I0
tp57
I1
s(I6
I9
I9
tp58
I1
s(I3
I9
I1
tp59
I1
s(I0
I4
I6
tp60
I1
s(I1
I3
I3
tp61
I1
s(I8
I6
I0
tp62
I1
s(I4
I5
I2
tp63
I1
s(I7
I5
I0
tp64
I1
s(I1
I5
I3
tp65
I1
s(I7
I6
I6
tp66
I1
s(I2
I3
I6
tp67
I1
s(I4
I6
I9
tp68
I1
s(I0
I8
I2
tp69
I1
s(I6
I4
I4
tp70
I1
s(I7
I7
I9
tp71
I1
s(I3
I4
I1
tp72
I1
s(I5
I7
I7
tp73
I1
s(I8
I2
I7
tp74
I1
s(I2
I9
I2
tp75
I1
s(I5
I1
I7
tp76
I1
s(I2
I4
I0
tp77
I1
s(I9
I7
I4
tp78
I1
s(I6
I2
I4
tp79
I1
s(I1
I1
I8
tp80
I1
s(I6
I1
I2
tp81
I1
s(I9
I3
I9
tp82
I1
s(I1
I2
I7
tp83
I1
s(I8
I7
I2
tp84
I1
s(I0
I5
I1
tp85
I1
s(I1
I9
I3
tp86
I1
s(I2
I1
I9
tp87
I1
s(I4
I0
I6
tp88
I1
s(I5
I7
I3
tp89
I1
s(I5
I4
I3
tp90
I1
s(I5
I1
I3
tp91
I1
s(I3
I3
I9
tp92
I1
s(I0
I0
I3
tp93
I1
s(I9
I7
I8
tp94
I1
s(I3
I6
I4
tp95
I1
s(I0
I3
I3
tp96
I1
s(I4
I3
I5
tp97
I1
s(I0
I6
I3
tp98
I1
s(I8
I4
I0
tp99
I1
s(I2
I7
I9
tp100
I1
s(I4
I8
I3
tp101
I1
s(I4
I2
I0
tp102
I1
s(I1
I9
I7
tp103
I1
s(I3
I4
I9
tp104
I1
s(I4
I5
I4
tp105
I1
s(I7
I0
I1
tp106
I1
s(I5
I4
I7
tp107
I1
s(I8
I9
I9
tp108
I1
s(I4
I4
I7
tp109
I1
s(I1
I0
I2
tp110
I1
s(I9
I8
I8
tp111
I1
s(I1
I1
I0
tp112
I1
s(I4
I8
I7
tp113
I1
s(I2
I2
I1
tp114
I1
s(I7
I5
I1
tp115
I1
s(I4
I5
I8
tp116
I1
s(I2
I1
I1
tp117
I1
s(I5
I9
I0
tp118
I1
s(I1
I7
I9
tp119
I1
s(I7
I4
I8
tp120
I1
s(I3
I5
I6
tp121
I1
s(I3
I2
I9
tp122
I1
s(I4
I2
I3
tp123
I1
s(I2
I8
I1
tp124
I1
s(I8
I4
I8
tp125
I1
s(I5
I2
I6
tp126
I1
s(I2
I7
I1
tp127
I1
s(I9
I0
I5
tp128
I1
s(I2
I2
I5
tp129
I1
s(I9
I3
I3
tp130
I1
s(I8
I0
I5
tp131
I1
s(I1
I2
I9
tp132
I1
s(I6
I7
I1
tp133
I1
s(I8
I6
I1
tp134
I1
s(I1
I4
I5
tp135
I1
s(I7
I7
I0
tp136
I1
s(I7
I1
I2
tp137
I1
s(I3
I6
I8
tp138
I1
s(I4
I7
I7
tp139
I1
s(I3
I5
I2
tp140
I1
s(I9
I8
I0
tp141
I1
s(I5
I5
I0
tp142
I1
s(I7
I0
I9
tp143
I1
s(I0
I2
I0
tp144
I1
s(I7
I0
I3
tp145
I1
s(I8
I0
I1
tp146
I1
s(I9
I9
I5
tp147
I1
s(I1
I7
I1
tp148
I1
s(I2
I6
I6
tp149
I1
s(I3
I0
I8
tp150
I1
s(I8
I2
I2
tp151
I1
s(I3
I2
I2
tp152
I1
s(I9
I6
I0
tp153
I1
s(I0
I4
I9
tp154
I1
s(I9
I8
I4
tp155
I1
s(I5
I5
I4
tp156
I1
s(I6
I5
I4
tp157
I1
s(I4
I0
I8
tp158
I1
s(I3
I7
I3
tp159
I1
s(I0
I2
I4
tp160
I1
s(I4
I1
I6
tp161
I1
s(I4
I2
I7
tp162
I1
s(I8
I3
I5
tp163
I1
s(I1
I7
I5
tp164
I1
s(I7
I4
I4
tp165
I1
s(I5
I0
I5
tp166
I1
s(I2
I5
I0
tp167
I1
s(I2
I0
I2
tp168
I1
s(I6
I6
I2
tp169
I1
s(I7
I5
I7
tp170
I1
s(I3
I2
I7
tp171
I1
s(I7
I3
I7
tp172
I1
s(I8
I3
I9
tp173
I1
s(I9
I6
I8
tp174
I1
s(I5
I9
I2
tp175
I1
s(I6
I3
I0
tp176
I1
s(I7
I1
I8
tp177
I1
s(I0
I9
I6
tp178
I1
s(I7
I5
I3
tp179
I1
s(I1
I5
I6
tp180
I1
s(I9
I7
I3
tp181
I1
s(I1
I8
I5
tp182
I1
s(I9
I4
I3
tp183
I1
s(I5
I3
I5
tp184
I1
s(I3
I4
I6
tp185
I1
s(I7
I8
I7
tp186
I1
s(I1
I0
I0
tp187
I1
s(I4
I9
I1
tp188
I1
s(I1
I8
I9
tp189
I1
s(I0
I3
I8
tp190
I1
s(I0
I8
I1
tp191
I1
s(I5
I6
I5
tp192
I1
s(I7
I7
I8
tp193
I1
s(I5
I3
I9
tp194
I1
s(I8
I7
I7
tp195
I1
s(I6
I9
I4
tp196
I1
s(I7
I8
I3
tp197
I1
s(I9
I2
I3
tp198
I1
s(I2
I4
I3
tp199
I1
s(I2
I3
I3
tp200
I1
s(I8
I6
I5
tp201
I1
s(I0
I6
I6
tp202
I1
s(I6
I1
I3
tp203
I1
s(I8
I4
I3
tp204
I1
s(I6
I4
I3
tp205
I1
s(I3
I3
I4
tp206
I1
s(I1
I9
I2
tp207
I1
s(I7
I0
I6
tp208
I1
s(I2
I1
I6
tp209
I1
s(I3
I9
I8
tp210
I1
s(I7
I7
I3
tp211
I1
s(I5
I7
I2
tp212
I1
s(I6
I8
I4
tp213
I1
s(I5
I4
I0
tp214
I1
s(I5
I1
I2
tp215
I1
s(I2
I4
I7
tp216
I1
s(I0
I0
I2
tp217
I1
s(I3
I6
I5
tp218
I1
s(I0
I3
I0
tp219
I1
s(I1
I3
I8
tp220
I1
s(I6
I1
I7
tp221
I1
s(I8
I4
I7
tp222
I1
s(I1
I6
I7
tp223
I1
s(I4
I8
I2
tp224
I1
s(I9
I0
I2
tp225
I1
s(I4
I3
I1
tp226
I1
s(I4
I5
I5
tp227
I1
s(I5
I9
I7
tp228
I1
s(I4
I3
I9
tp229
I1
s(I5
I4
I4
tp230
I1
s(I6
I8
I3
tp231
I1
s(I4
I4
I6
tp232
I1
s(I7
I2
I9
tp233
I1
s(I7
I9
I0
tp234
I1
s(I1
I1
I3
tp235
I1
s(I7
I9
I5
tp236
I1
s(I9
I3
I0
tp237
I1
s(I4
I8
I6
tp238
I1
s(I1
I7
I8
tp239
I1
s(I7
I4
I9
tp240
I1
s(I1
I4
I6
tp241
I1
s(I3
I5
I5
tp242
I1
s(I4
I4
I2
tp243
I1
s(I8
I1
I7
tp244
I1
s(I1
I1
I7
tp245
I1
s(I2
I8
I0
tp246
I1
s(I4
I2
I6
tp247
I1
s(I2
I2
I4
tp248
I1
s(I6
I0
I0
tp249
I1
s(I8
I3
I2
tp250
I1
s(I3
I0
I5
tp251
I1
s(I1
I4
I2
tp252
I1
s(I2
I5
I9
tp253
I1
s(I7
I1
I1
tp254
I1
s(I9
I6
I5
tp255
I1
s(I2
I0
I5
tp256
I1
s(I3
I6
I9
tp257
I1
s(I3
I5
I0
tp258
I1
s(I3
I7
I6
tp259
I1
s(I0
I2
I3
tp260
I1
s(I8
I8
I1
tp261
I1
s(I8
I3
I6
tp262
I1
s(I1
I7
I0
tp263
I1
s(I9
I7
I6
tp264
I1
s(I3
I0
I9
tp265
I1
s(I7
I1
I5
tp266
I1
s(I1
I8
I6
tp267
I1
s(I2
I0
I1
tp268
I1
s(I4
I7
I8
tp269
I1
s(I6
I3
I9
tp270
I1
s(I9
I8
I5
tp271
I1
s(I5
I5
I7
tp272
I1
s(I3
I1
I2
tp273
I1
s(I5
I1
I0
tp274
I1
s(I7
I6
I8
tp275
I1
s(I4
I6
I3
tp276
I1
s(I0
I2
I7
tp277
I1
s(I3
I8
I4
tp278
I1
s(I4
I1
I7
tp279
I1
s(I2
I6
I1
tp280
I1
s(I8
I6
I8
tp281
I1
s(I2
I5
I1
tp282
I1
s(I6
I9
I8
tp283
I1
s(I3
I9
I7
tp284
I1
s(I5
I8
I9
tp285
I1
s(I0
I7
I2
tp286
I1
s(I8
I5
I5
tp287
I1
s(I6
I8
I0
tp288
I1
s(I3
I2
I4
tp289
I1
s(I2
I3
I8
tp290
I1
s(I7
I3
I6
tp291
I1
s(I9
I4
I4
tp292
I1
s(I4
I1
I3
tp293
I1
s(I1
I2
I6
tp294
I1
s(I8
I9
I1
tp295
I1
s(I9
I1
I9
tp296
I1
s(I9
I6
I9
tp297
I1
s(I6
I3
I1
tp298
I1
s(I7
I8
I4
tp299
I1
s(I8
I5
I1
tp300
I1
s(I4
I9
I6
tp301
I1
s(I9
I7
I2
tp302
I1
s(I7
I3
I2
tp303
I1
s(I4
I6
I7
tp304
I1
s(I5
I8
I5
tp305
I1
s(I2
I6
I9
tp306
I1
s(I8
I0
I3
tp307
I1
s(I3
I5
I9
tp308
I1
s(I3
I4
I7
tp309
I1
s(I0
I1
I2
tp310
I1
s(I5
I7
I9
tp311
I1
s(I6
I3
I5
tp312
I1
s(I4
I3
I2
tp313
I1
s(I5
I1
I5
tp314
I1
s(I9
I2
I6
tp315
I1
s(I9
I4
I2
tp316
I1
s(I0
I3
I9
tp317
I1
s(I6
I2
I6
tp318
I1
s(I0
I8
I0
tp319
I1
s(I5
I6
I6
tp320
I1
s(I6
I4
I6
tp321
I1
s(I8
I7
I4
tp322
I1
s(I4
I7
I9
tp323
I1
s(I9
I9
I0
tp324
I1
s(I5
I7
I5
tp325
I1
s(I8
I2
I9
tp326
I1
s(I1
I0
I5
tp327
I1
s(I7
I9
I1
tp328
I1
s(I0
I0
I5
tp329
I1
s(I3
I6
I6
tp330
I1
s(I7
I1
I0
tp331
I1
s(I3
I3
I7
tp332
I1
s(I5
I9
I5
tp333
I1
s(I6
I4
I8
tp334
I1
s(I9
I5
I7
tp335
I1
s(I4
I0
I4
tp336
I1
s(I5
I7
I1
tp337
I1
s(I8
I7
I0
tp338
I1
s(I0
I3
I1
tp339
I1
s(I3
I2
I8
tp340
I1
s(I4
I2
I5
tp341
I1
s(I1
I6
I0
tp342
I1
s(I4
I8
I1
tp343
I1
s(I9
I3
I4
tp344
I1
s(I4
I5
I6
tp345
I1
s(I2
I1
I3
tp346
I1
s(I0
I5
I8
tp347
I1
s(I5
I9
I6
tp348
I1
s(I5
I4
I5
tp349
I1
s(I2
I9
I8
tp350
I1
s(I4
I2
I9
tp351
I1
s(I8
I8
I2
tp352
I1
s(I6
I8
I2
tp353
I1
s(I0
I3
I5
tp354
I1
s(I3
I5
I3
tp355
I1
s(I4
I2
I1
tp356
I1
s(I2
I8
I7
tp357
I1
s(I1
I9
I6
tp358
I1
s(I4
I8
I5
tp359
I1
s(I8
I7
I5
tp360
I1
s(I9
I2
I0
tp361
I1
s(I0
I5
I4
tp362
I1
s(I9
I9
I2
tp363
I1
s(I7
I4
I5
tp364
I1
s(I9
I5
I0
tp365
I1
s(I3
I5
I4
tp366
I1
s(I8
I1
I8
tp367
I1
s(I1
I1
I6
tp368
I1
s(I0
I1
I7
tp369
I1
s(I8
I9
I5
tp370
I1
s(I4
I0
I9
tp371
I1
s(I3
I7
I5
tp372
I1
s(I0
I5
I0
tp373
I1
s(I6
I0
I3
tp374
I1
s(I8
I3
I3
tp375
I1
s(I1
I7
I3
tp376
I1
s(I6
I7
I3
tp377
I1
s(I1
I4
I3
tp378
I1
s(I8
I9
I3
tp379
I1
s(I9
I6
I6
tp380
I1
s(I8
I1
I4
tp381
I1
s(I4
I9
I0
tp382
I1
s(I9
I8
I6
tp383
I1
s(I6
I6
I8
tp384
I1
s(I9
I8
I2
tp385
I1
s(I6
I9
I1
tp386
I1
s(I9
I9
I9
tp387
I1
s(I4
I1
I4
tp388
I1
s(I1
I7
I7
tp389
I1
s(I2
I6
I4
tp390
I1
s(I7
I4
I2
tp391
I1
s(I2
I5
I2
tp392
I1
s(I7
I1
I4
tp393
I1
s(I2
I0
I0
tp394
I1
s(I8
I1
I2
tp395
I1
s(I0
I9
I0
tp396
I1
s(I3
I1
I1
tp397
I1
s(I1
I5
I8
tp398
I1
s(I6
I5
I2
tp399
I1
s(I8
I8
I4
tp400
I1
s(I1
I8
I3
tp401
I1
s(I7
I3
I5
tp402
I1
s(I0
I2
I6
tp403
I1
s(I3
I8
I5
tp404
I1
s(I4
I1
I0
tp405
I1
s(I4
I1
I9
tp406
I1
s(I5
I3
I3
tp407
I1
s(I5
I0
I3
tp408
I1
s(I3
I9
I6
tp409
I1
s(I6
I6
I0
tp410
I1
s(I2
I4
I9
tp411
I1
s(I3
I2
I5
tp412
I1
s(I2
I3
I9
tp413
I1
s(I4
I6
I2
tp414
I1
s(I5
I8
I6
tp415
I1
s(I8
I1
I3
tp416
I1
s(I3
I3
I1
tp417
I1
s(I6
I4
I9
tp418
I1
s(I7
I5
I2
tp419
I1
s(I9
I0
I7
tp420
I1
s(I3
I9
I2
tp421
I1
s(I6
I3
I2
tp422
I1
s(I4
I3
I7
tp423
I1
s(I0
I9
I8
tp424
I1
s(I0
I7
I1
tp425
I1
s(I8
I5
I2
tp426
I1
s(I1
I5
I0
tp427
I1
s(I0
I0
I0
tp428
I1
s(I4
I9
I7
tp429
I1
s(I9
I7
I1
tp430
I1
s(I4
I6
I6
tp431
I1
s(I4
I1
I8
tp432
I1
s(I0
I6
I8
tp433
I1
s(I5
I8
I2
tp434
I1
s(I6
I1
I9
tp435
I1
s(I2
I7
I7
tp436
I1
s(I6
I4
I5
tp437
I1
s(I2
I6
I8
tp438
I1
s(I7
I0
I8
tp439
I1
s(I0
I1
I3
tp440
I1
s(I5
I7
I8
tp441
I1
s(I4
I3
I3
tp442
I1
s(I2
I4
I1
tp443
I1
s(I4
I9
I3
tp444
I1
s(I9
I7
I5
tp445
I1
s(I6
I2
I5
tp446
I1
s(I0
I6
I4
tp447
I1
s(I1
I1
I9
tp448
I1
s(I9
I9
I6
tp449
I1
s(I1
I6
I9
tp450
I1
s(I4
I8
I8
tp451
I1
s(I4
I3
I0
tp452
I1
s(I7
I0
I4
tp453
I1
s(I3
I2
I1
tp454
I1
s(I7
I2
I1
tp455
I1
s(I8
I2
I6
tp456
I1
s(I5
I4
I2
tp457
I1
s(I9
I2
I5
tp458
I1
s(I2
I4
I5
tp459
I1
s(I3
I6
I7
tp460
I1
s(I0
I3
I2
tp461
I1
s(I5
I3
I8
tp462
I1
s(I7
I9
I6
tp463
I1
s(I8
I4
I1
tp464
I1
s(I1
I6
I5
tp465
I1
s(I2
I7
I8
tp466
I1
s(I8
I7
I1
tp467
I1
s(I7
I9
I7
tp468
I1
s(I3
I4
I8
tp469
I1
s(I9
I5
I6
tp470
I1
s(I3
I3
I8
tp471
I1
s(I5
I7
I0
tp472
I1
s(I5
I3
I7
tp473
I1
s(I7
I8
I9
tp474
I1
s(I9
I2
I9
tp475
I1
s(I7
I8
I2
tp476
I1
s(I4
I4
I8
tp477
I1
s(I3
I6
I3
tp478
I1
s(I0
I3
I6
tp479
I1
s(I8
I1
I1
tp480
I1
s(I1
I1
I1
tp481
I1
s(I7
I7
I2
tp482
I1
s(I1
I9
I8
tp483
I1
s(I2
I1
I0
tp484
I1
s(I5
I9
I1
tp485
I1
s(I1
I4
I8
tp486
I1
s(I5
I1
I8
tp487
I1
s(I3
I5
I7
tp488
I1
s(I8
I1
I5
tp489
I1
s(I2
I8
I6
tp490
I1
s(I8
I4
I9
tp491
I1
s(I5
I2
I5
tp492
I1
s(I8
I7
I9
tp493
I1
s(I2
I2
I6
tp494
I1
s(I4
I9
I9
tp495
I1
s(lp496
I00
aI01
aI00
aI00
aI01
aI00
aI00
aI00
aI00
aI01
aI01
aI00
aI00
aI01
aI01
aI00
aI00
aI01
aI00
aI00
aI01
aI01
aI01
aI01
aI00
aI00
aI00
aI00
aI00
aI00
aI00
aI01
aI00
aI01
aI01
aI00
aI00
aI00
aI00
aI00
aI00
aI01
aI00
aI00
aI00
aI00
aI00
aI00
aI00
aI00
aI00
aI00
aI00
aI00
aI00
aI01
aI00
aI00
aI00
aI01
aI00
aI00
aI00
aI01
aI00
aI00
aI00
aI00
aI00
aI00
aI01
aI00
aI01
aI00
aI00
aI00
aI00
aI00
aI00
aI01
aI00
aI00
aI00
aI00
aI00
aI00
aI00
aI00
aI00
aI00
aI01
aI00
aI00
aI00
aI00
aI00
aI00
aI00
aI01
aI00
aI01
aI00
aI00
aI00
aI00
aI00
aI00
aI00
aI00
aI01
aI00
aI00
aI00
aI00
aI00
aI00
aI00
aI00
aI00
aI00
aI00
aI01
aI00
aI00
aI00
aI00
aI01
aI01
aI00
aI01
aI00
aI00
aI00
aI00
aI00
aI00
aI00
aI00
aI01
aI00
aI00
aI00
aI00
aI00
aI00
aI00
aI00
aI00
aI00
aI00
aI00
aI00
aI00
aI00
aI00
aI00
aI01
aI00
aI00
aI00
aI00
aI00
aI00
aI00
aI00
aI00
aI00
aI00
aI01
aI00
aI01
aI00
aI00
aI00
aI00
aI00
aI00
aI00
aI00
aI01
aI00
aI00
aI01
aI00
aI00
aI00
aI00
aI00
aI00
aI01
aI00
aI00
aI01
aI00
aI00
aI00
aI00
aI01
aI00
aI00
aI00
aI00
aI00
aI00
aI00
aI00
aI00
aI00
aI00
aI00
aI00
aI00
aI01
aI01
aI01
aI00
aI00
aI01
aI00
aI00
aI00
aI01
aI00
aI00
aI00
aI01
aI00
aI00
aI01
aI00
aI01
aI00
aI00
aI00
aI00
aI00
aI00
aI00
aI00
aI01
aI00
aI00
aI00
aI00
aI00
aI00
aI01
aI00
aI00
aI00
aI00
aI00
aI00
aI00
aI00
aI00
aI01
aI00
aI00
aI00
aI00
aI00
aI00
aI00
aI00
aI00
aI00
aI00
aI01
aI01
aI00
aI01
aI00
aI00
aI00
aI00
aI00
aI01
aI01
aI00
aI00
aI00
aI00
aI00
aI00
aI00
aI00
aI01
aI01
aI01
aI00
aI00
aI01
aI00
aI00
aI00
aI00
aI00
aI00
aI00
aI01
aI00
aI00
aI00
aI00
aI00
aI00
aI00
aI00
aI01
aI00
aI00
aI00
aI00
aI01
aI00
aI00
aI00
aI01
aI00
aI00
aI00
aI00
aI00
aI00
aI00
aI00
aI00
aI00
aI00
aI00
aI00
aI00
aI01
aI00
aI00
aI00
aI01
aI01
aI00
aI00
aI00
aI00
aI00
aI01
aI00
aI00
aI00
aI00
aI00
aI00
aI01
aI00
aI01
aI00
aI00
aI01
aI00
aI00
aI00
aI00
aI00
aI00
aI00
aI01
aI00
aI00
aI00
aI00
aI00
aI00
aI00
aI00
aI00
aI00
aI00
aI00
aI01
aI00
aI00
aI01
aI00
aI00
aI00
aI00
aI00
aI00
aI00
aI00
aI01
aI00
aI01
aI00
aI01
aI00
aI00
aI01
aI00
aI00
aI00
aI00
aI00
aI00
aI00
aI00
aI00
aI01
aI00
aI00
aI00
aI00
aI00
aI01
aI01
aI01
aI00
aI00
aI00
aI00
aI00
aI01
aI01
aI00
aI00
aI01
aI01
aI00
aI00
aI01
aI00
aI00
aI00
aI00
aI00
aI01
aI00
aI00
aI00
aI00
aI01
aI00
aI00
aI00
aI00
aI00
aI00
aI00
aI00
aI00
aI00
aI00
aI01
aI00
aI00
aI00
aI01
aI01
aI00
aI00
aI01
aI00
aI01
aI00
aI00
aI00
aI01
aI00
aI01
aI00
aI00
aI01
aI00
aI00
aI00
aI00
aI00
aI00
aI00
aI00
aI01
aI01
aI00
aI00
aI00
aI00
aI00
aI00
aI00
aI01
aI01
aI00
aI00
aI00
aI00
aI00
aI00
aI00
aI00
aI00
aI00
aI00
aI00
aI00
aI00
aI00
aI00
aI00
aI00
aI00
aI00
aI00
aI01
aI00
aI00
aI00
aI00
aI00
aI00
aI01
aI00
aI00
aI01
aI00
aI00
aI00
aI00
aI00
aI00
aI00
aI00
aI00
aI00
aI00
aI01
aI00
aI01
aI01
aI00
aI01
aI00
aI00
aI00
aI01
aI01
aI01
aI00
aI00
aI00
aI01
aI00
aI00
aI01
aI00
aI00
aI00
aI00
aI00
aI01
aI00
aI01
aI00
aI00
aI00
aI00
aI00
aI00
aI00
aI00
aI00
aI00
aI00
aI00
aI00
aI00
aI01
aI01
aI00
aI00
aI01
aI00
aI00
aI00
aI00
aI01
aI00
aI00
aI01
aI00
aI00
aI00
aI00
aI00
aI00
aI00
aI00
aI00
aI01
aI00
aI00
aI00
aI00
aI00
aI00
aI00
aI00
aI01
aI01
aI01
aI00
aI00
aI00
aI00
aI00
aI00
aI00
aI00
aI00
aI00
aI00
aI00
aI00
aI01
aI01
aI00
aI00
aI00
aI00
aI00
aI00
aI00
aI00
aI00
aI00
aI00
aI00
aI01
aI00
aI00
aI00
aI00
aI00
aI00
aI00
aI00
aI01
aI01
aI00
aI01
aI00
aI00
aI00
aI01
aI00
aI00
aI00
aI00
aI01
aI00
aI00
aI00
aI00
aI00
aI00
aI00
aI00
aI00
aI00
aI00
aI01
aI00
aI00
aI00
aI01
aI00
aI00
aI00
aI00
aI00
aI00
aI00
aI00
aI00
aI00
aI00
aI00
aI00
aI00
aI01
aI00
aI00
aI01
aI01
aI00
aI01
aI00
aI00
aI00
aI00
aI00
aI00
aI01
aI00
aI00
aI00
aI00
aI01
aI01
aI01
aI00
aI00
aI00
aI01
aI01
aI00
aI00
aI01
aI00
aI00
aI01
aI00
aI00
aI01
aI00
aI00
aI00
aI00
aI00
aI00
aI00
aI01
aI00
aI01
aI00
aI00
aI00
aI00
aI01
aI01
aI01
aI01
aI01
aI00
aI00
aI00
aI00
aI01
aI01
aI00
aI00
aI00
aI01
aI00
aI00
aI01
aI00
aI00
aI00
aI00
aI01
aI01
aI01
aI00
aI00
aI00
aI00
aI00
aI01
aI01
aI01
aI00
aI00
aI00
aI01
aI00
aI00
aI00
aI00
aI00
aI00
aI01
aI00
aI00
aI00
aI01
aI00
aI00
aI00
aI00
aI00
aI00
aI00
aI00
aI00
aI00
aI00
aI01
aI00
aI00
aI00
aI00
aI00
aI00
aI00
aI00
aI01
aI00
aI01
aI00
aI00
aI00
aI00
aI01
aI00
aI01
aI00
aI00
aI00
aI01
aI01
aI00
aI01
aI00
aI01
aI00
aI00
aI01
aI00
aI00
aI00
aI00
aI00
aI00
aI00
aI00
aI00
aI00
aI00
aI00
aI00
aI01
aI00
aI00
aI01
aI00
aI00
aI01
aI00
aI00
aI00
aI01
aI00
aI00
aI00
aI00
aI00
aI00
aI00
aI01
aI00
aI01
aI00
aI00
aI00
aI00
aI00
aI00
aI00
aI00
aI00
aI00
aI01
aI00
aI01
aI00
aI00
aI00
aI00
aI00
aI00
aI01
aI00
aI01
aI00
aI00
aI00
aI01
aI00
aI00
aI00
aI00
aI01
aI00
aI00
aI00
aI00
aI00
aI00
aI00
aI00
aI01
aI00
aI00
aI00
aI00
aI00
aI00
aI00
aI01
aI00
aI00
aI00
aI00
aI00
aI00
aI00
aI00
aI00
aI00
aI00
aI01
aI00
aI00
aI00
aI00
aI01
aI00
aI00
aI00
aI00
aI00
aI00
aI00
aI00
aI00
aI00
aI00
aI01
aI00
aI01
aI00
aI00
aI00
aI00
aI00
aI01
aI01
aI00
aI00
aI00
aI00
aI01
aI00
aI00
aI00
aI00
aI00
aI01
aI00
aI00
aI01
aI01
aI01
aI00
aI00
aI00
aI00
aI00
aI00
aI00
aI01
aI00
aI00
aI01
aI01
aI00
aI00
aI00
aI00
aI00
aI00
aI00
aI00
aI00
aI00
aI00
aI00
aI00
aI01
aI00
aI00
aI00
aI00
aI00
aI01
aI00
aI01
aI00
aI00
aI00
aI00
aI00
aI00
aI00
aI01
aI00
aI00
aI00
aI00
aI00
aI00
aI00
aI00
aI00
aI00
aI00
aI00
aI00
aI00
aI00
aI00
aI00
aI00
aI00
aI01
aI01
aI00
aI00
aI00
aI01
aI00
aI00
aI00
aI01
aI00
aI00
aI00
aI01
aI00
aI00
aI01
aI00
aI01
aI01
aI01
aI00
aI00
aI01
aI00
aI01
aI00
aI01
aI01
aI00
aI00
aI00
aI01
aI00
aI00
aI00
aI00
aI01
aI00
aI00
aI00
aI00
aI01
aI00
aI00
aI00
aI01
aI00
aI00
aI00
aI00
aI00
aI00
aI00
aI00
aI00
aI00
aI00
aI01
aI00
aI00
aI00
aI00
aI01
aI01
aI00
aI00
aI01
aI00
aI00
aI00
aI00
aI00
aI00
aI00
aI01
aI00
aI00
aI00
aI01
aI01
aI00
aI00
aI00
aI00
aI00
aI00
aI00
aI00
aI00
aI00
aI00
aI01
aI00
aI00
aI01
aI00
aI00
aI01
aI01
aI01
aI00
aI00
aI01
aI00
aI00
aI00
aI01
aI00
aI00
aI00
aI00
aI00
aI00
aI01
aI00
aI00
aI00
aI00
aI00
aI00
aI01
aI00
aI00
aI01
aI00
aI00
aI00
aI01
aI00
aI00
aI00
aI00
aI00
aI01
aI00
aI00
aI00
aI00
aI00
aI00
aI00
aI00
aI00
aI00
aI00
aI00
aI00
aI00
aI00
aI00
aI01
aI00
aI01
aI00
aI00
aI00
aI00
aI01
aI00
aI00
aI00
aI00
aI00
aI01
aI01
aI00
aI00
aI00
aI01
aI00
aI00
aI00
aI00
aI00
aI01
aI00
aI01
aI00
aI00
aI00
aI00
aI00
aI00
aI00
aI00
aI00
aI00
aI00
aI00
aI01
aI00
aI00
aI00
aI01
aI01
aI00
aI00
aI00
aI00
aI00
aI00
aI00
aI00
aI01
aI00
aI00
aI01
aI01
aI00
aI00
aI01
aI00
aI00
aI00
aI00
aI00
aI00
aI00
aI00
aI01
aI00
aI00
aI00
aI00
aI00
aI00
aI00
aI00
aI01
aI00
aI00
aI00
aI00
aI00
aI00
aI00
aI00
aI00
aI00
aI00
aI01
aI00
aI00
aI00
aI01
aI00
aI01
aI01
aI00
aI00
aI00
aI00
aI00
aI01
aI00
aI00
aI01
aI00
aI00
aI00
aI00
aI00
aI00
aI00
aI00
aI00
aI00
aI00
aI00
aI00
aI01
aI00
aI00
aI01
aI00
aI00
aI01
aI00
aI01
aI00
aI00
aI00
aI00
aI00
aI00
aI00
aI00
aI00
aI00
aI00
aI00
aI00
aI00
aI00
aI00
aI00
aI00
aI00
aI00
aI00
aI00
aI00
aI01
aI00
aI00
aI00
aI00
aI00
aI00
aI01
aI00
aI00
aI00
aI00
aI01
aI01
aI00
aI00
aI00
aI00
aI00
aI00
aI00
aI00
aI00
aI00
aI00
aI00
aI00
aI00
aI00
aI01
aI00
aI00
aI00
aI00
aI00
aI00
aI01
aI00
aI00
aI01
aI00
aI00
aI00
aI01
aI00
aI00
aI00
aI00
aI01
aI00
aI00
aI00
aI00
aI01
aI01
aI00
aI01
aI00
aI00
aI00
aI00
aI00
aI00
aI01
aI00
aI00
aI00
aI00
aI00
aI01
aI01
aI00
aI00
aI00
aI00
aI00
aI00
aI00
aI00
aI00
aI00
aI00
aI01
aI00
aI00
aI00
aI00
aI00
aI00
aI00
aI00
aI01
aI00
aI00
aI00
aI00
aI01
aI00
aI00
aI00
aI01
aI00
aI01
aI00
aI00
aI00
aI00
aI00
aI00
aI00
aI00
aI00
aI00
aI01
aI01
aI00
aI00
aI00
aI00
aI01
aI00
aI00
aI01
aI00
aI00
aI00
aI01
aI01
aI00
aI00
aI00
aI00
aI00
aI00
aI00
aI00
aI00
aI00
aI00
aI00
aI00
aI00
aI00
aI00
aI00
aI00
aI00
aI00
aI01
aI00
aI00
aI00
aI00
aI00
aI01
aI00
aI00
aI00
aI00
aI00
aI00
aI00
aI00
aI00
aI00
aI00
aI00
aI01
aI00
aI00
aI00
aI00
aI01
aI00
aI01
aI00
aI00
aI01
aI00
aI00
aI00
aI00
aI00
aI00
aI00
aI00
aI00
aI00
aI00
aI00
aI00
aI01
aI01
aI00
aI00
aI00
aI00
aI00
aI00
aI00
aI00
aI01
aI01
aI00
aI00
aI00
aI00
aI00
aI00
aI00
aI00
aI00
aI00
aI00
aI00
aI00
aI00
aI00
aI00
aI00
aI01
aI00
aI00
aI00
aI00
aI00
aI01
aI00
aI00
aI00
aI00
aI00
aI00
aI00
aI00
aI00
aI00
aI01
aI00
aI00
aI00
aI00
aI00
aI00
aI01
aI00
aI00
aI00
aI00
aI00
aI00
aI00
aI00
aI00
aI01
aI00
aI00
aI00
aI00
aI01
aI01
aI00
aI00
aI00
aI00
aI00
aI00
aI00
aI00
aI00
aI00
aI00
aI00
aI00
aI00
aI00
aI00
aI01
aI00
aI00
aI00
aI00
aI00
aI00
aI00
aI00
aI00
aI00
aI01
aI00
aI00
aI00
aI00
aI00
aI01
aI00
aI00
aI01
aI00
aI00
aI00
aI00
aI01
aI00
aI00
aI00
aI00
aI01
aI00
aI00
aI00
aI00
aS'65'
p497
tp498
.